Certificate:
    Data:
        Version: 3 (0x2)
        Serial Number: 1 (0x1)
        Signature Algorithm: sha256WithRSAEncryption
        Issuer: C=US, ST=Colorado, L=Engineering, O=Minion Lab/emailAddress=admin@minion.lab, CN=Minion Lab FreeRadius CA
        Validity
            Not Before: Feb 20 16:11:11 2019 GMT
            Not After : Feb 17 16:11:11 2029 GMT
        Subject: C=US, ST=Colorado, O=Minion Lab, CN=freeradius.minion.lab/emailAddress=admin@minion.lab
        Subject Public Key Info:
            Public Key Algorithm: rsaEncryption
                RSA Public-Key: (2048 bit)
                Modulus:
                    00:cd:7c:77:b8:f1:25:c3:96:30:8f:63:32:ac:d1:
                    f2:f0:97:8b:bb:d2:5c:2c:86:a8:47:dc:97:79:2a:
                    57:53:46:ef:02:f4:2c:72:df:29:35:82:94:31:18:
                    24:8a:62:f2:21:a6:eb:b5:b7:af:fd:ae:30:9b:9a:
                    da:4e:2a:aa:e8:4d:e3:cd:33:1e:f2:fa:a7:72:b0:
                    b2:9a:52:7a:ba:ad:c2:dc:bd:7a:b9:57:fd:af:6e:
                    b9:2e:8a:d2:c5:42:23:48:d8:83:49:41:51:fb:98:
                    e6:10:20:19:b9:30:b8:a8:9e:c9:0a:11:ad:23:fe:
                    42:5e:35:74:24:ea:72:2b:ef:e7:6b:2d:7e:c8:c5:
                    ce:1b:e0:1a:d4:a3:0e:44:df:d9:dc:02:cf:73:80:
                    20:0e:4e:ba:a9:29:e3:24:f3:1f:dd:8d:e2:16:b2:
                    2b:df:93:4e:8e:aa:b8:f9:f7:ba:11:1a:37:fb:a2:
                    98:47:af:0b:b3:d1:44:46:bb:0b:e2:43:45:12:ce:
                    b2:b1:ee:50:83:c0:56:38:56:17:53:59:4a:4c:e5:
                    25:26:f2:08:fe:de:a8:d3:f6:e1:ce:ab:97:3b:75:
                    06:94:43:95:ef:04:7a:ab:f6:af:65:35:b1:35:ff:
                    66:89:7a:e5:9f:90:73:de:5d:95:85:3f:b4:41:8d:
                    6d:ef
                Exponent: 65537 (0x10001)
        X509v3 extensions:
            X509v3 Extended Key Usage: 
                TLS Web Server Authentication
            X509v3 CRL Distribution Points: 

                Full Name:
                  URI:http://www.example.com/example_ca.crl

    Signature Algorithm: sha256WithRSAEncryption
         41:b6:c8:54:f8:ed:c5:3d:2d:8d:30:42:d6:be:71:f2:7c:34:
         fe:37:66:c0:42:d8:25:c2:b7:8d:ee:5b:70:39:4e:5f:bc:07:
         80:b9:48:3d:b4:ea:f5:d0:8c:5a:95:69:23:22:3e:df:3c:65:
         22:a6:c4:9d:96:02:6e:29:81:50:16:fc:47:2d:7e:72:ff:69:
         cb:ce:e8:a5:3a:f9:36:fa:90:22:de:9a:d3:f2:d4:49:e8:6e:
         b5:47:3e:f4:2e:f6:82:8a:ca:8a:30:0d:dc:a7:5d:8a:47:4e:
         a1:ef:32:48:ff:9c:7e:b0:bc:ba:8f:dd:97:27:c5:6c:d6:c6:
         b1:fc:f6:77:8b:d2:33:40:6b:f4:c8:9e:1f:12:5e:f7:ea:f6:
         df:e8:01:ae:d7:ce:1d:2e:4e:19:36:95:ba:47:af:e0:ac:af:
         b9:39:dc:65:45:97:2c:e1:13:1e:eb:e6:a4:95:23:42:81:41:
         33:57:a7:f4:55:09:dd:71:18:37:ab:b5:9b:c9:62:b8:e3:ac:
         fb:18:b7:0e:1e:69:5a:1e:6b:8b:aa:68:47:e9:e2:7d:0d:cd:
         05:e3:c2:79:42:33:3d:4a:08:5e:38:84:db:fd:71:bd:be:b6:
         c3:fc:f6:f8:1c:26:bc:3b:40:58:7f:b3:41:88:76:bb:37:5a:
         9e:63:7c:c0
-----BEGIN CERTIFICATE-----
MIID0DCCArigAwIBAgIBATANBgkqhkiG9w0BAQsFADCBjzELMAkGA1UEBhMCVVMx
ETAPBgNVBAgMCENvbG9yYWRvMRQwEgYDVQQHDAtFbmdpbmVlcmluZzETMBEGA1UE
CgwKTWluaW9uIExhYjEfMB0GCSqGSIb3DQEJARYQYWRtaW5AbWluaW9uLmxhYjEh
MB8GA1UEAwwYTWluaW9uIExhYiBGcmVlUmFkaXVzIENBMB4XDTE5MDIyMDE2MTEx
MVoXDTI5MDIxNzE2MTExMVowdjELMAkGA1UEBhMCVVMxETAPBgNVBAgMCENvbG9y
YWRvMRMwEQYDVQQKDApNaW5pb24gTGFiMR4wHAYDVQQDDBVmcmVlcmFkaXVzLm1p
bmlvbi5sYWIxHzAdBgkqhkiG9w0BCQEWEGFkbWluQG1pbmlvbi5sYWIwggEiMA0G
CSqGSIb3DQEBAQUAA4IBDwAwggEKAoIBAQDNfHe48SXDljCPYzKs0fLwl4u70lws
hqhH3Jd5KldTRu8C9Cxy3yk1gpQxGCSKYvIhpuu1t6/9rjCbmtpOKqroTePNMx7y
+qdysLKaUnq6rcLcvXq5V/2vbrkuitLFQiNI2INJQVH7mOYQIBm5MLionskKEa0j
/kJeNXQk6nIr7+drLX7Ixc4b4BrUow5E39ncAs9zgCAOTrqpKeMk8x/djeIWsivf
k06Oqrj597oRGjf7ophHrwuz0URGuwviQ0USzrKx7lCDwFY4VhdTWUpM5SUm8gj+
3qjT9uHOq5c7dQaUQ5XvBHqr9q9lNbE1/2aJeuWfkHPeXZWFP7RBjW3vAgMBAAGj
TzBNMBMGA1UdJQQMMAoGCCsGAQUFBwMBMDYGA1UdHwQvMC0wK6ApoCeGJWh0dHA6
Ly93d3cuZXhhbXBsZS5jb20vZXhhbXBsZV9jYS5jcmwwDQYJKoZIhvcNAQELBQAD
ggEBAEG2yFT47cU9LY0wQta+cfJ8NP43ZsBC2CXCt43uW3A5Tl+8B4C5SD206vXQ
jFqVaSMiPt88ZSKmxJ2WAm4pgVAW/EctfnL/acvO6KU6+Tb6kCLemtPy1EnobrVH
PvQu9oKKyoowDdynXYpHTqHvMkj/nH6wvLqP3ZcnxWzWxrH89neL0jNAa/TInh8S
Xvfq9t/oAa7Xzh0uThk2lbpHr+Csr7k53GVFlyzhEx7r5qSVI0KBQTNXp/RVCd1x
GDertZvJYrjjrPsYtw4eaVoea4uqaEfp4n0NzQXjwnlCMz1KCF44hNv9cb2+tsP8
9vgcJrw7QFh/s0GIdrs3Wp5jfMA=
-----END CERTIFICATE-----
