Certificate:
    Data:
        Version: 3 (0x2)
        Serial Number: 2 (0x2)
        Signature Algorithm: sha256WithRSAEncryption
        Issuer: C=US, ST=Colorado, L=Engineering, O=Minion Lab/emailAddress=admin@minion.lab, CN=Minion Lab FreeRadius CA
        Validity
            Not Before: Feb 20 16:11:11 2019 GMT
            Not After : Feb 17 16:11:11 2029 GMT
        Subject: C=US, ST=Colorado, O=Minion Lab, CN=kris.armstrong@2048.minion.lab/emailAddress=kris.armstrong@2048.minion.lab
        Subject Public Key Info:
            Public Key Algorithm: rsaEncryption
                RSA Public-Key: (2048 bit)
                Modulus:
                    00:9e:59:12:40:90:8e:fc:0b:86:77:ba:67:3d:8b:
                    3d:a4:bd:13:65:4d:6e:e1:61:35:37:6e:7e:af:98:
                    6a:a6:cf:44:17:16:88:db:99:ef:95:ba:db:7f:e6:
                    6d:83:32:0c:08:9a:76:b3:7e:22:27:03:92:2c:83:
                    9c:17:ea:59:5f:7a:a1:a0:ff:c1:c0:e2:b0:b8:c5:
                    6d:23:a6:08:37:cf:11:c8:11:2d:bf:49:12:52:d6:
                    9a:17:1e:eb:e9:b2:94:f9:b0:9d:4d:ba:15:f4:23:
                    7a:7b:86:31:a3:5d:c3:18:02:a6:68:de:fd:be:0e:
                    23:22:2c:4f:4f:03:88:64:d3:84:41:49:6d:0a:45:
                    92:1a:a0:57:57:84:36:e9:56:77:91:af:d8:6e:34:
                    a6:6e:75:8d:d3:14:5a:2b:f9:a5:72:f1:32:da:b4:
                    69:7f:66:fb:20:f6:fe:0a:49:c9:b3:97:66:1f:ba:
                    e4:a9:bc:1d:f9:2b:c0:85:b5:c1:52:c9:df:79:c7:
                    4c:b9:dd:5c:32:f9:8b:9b:fe:d6:ce:74:05:d7:93:
                    47:d6:eb:29:78:1a:7d:c7:0b:4f:13:23:bf:3c:2d:
                    f1:4a:95:5f:1a:84:51:67:99:66:2e:06:fb:1e:89:
                    7c:8c:4c:79:a1:8d:d6:f1:42:ee:95:07:e1:4c:ae:
                    0f:d5
                Exponent: 65537 (0x10001)
        X509v3 extensions:
            X509v3 Extended Key Usage: 
                TLS Web Client Authentication
            X509v3 CRL Distribution Points: 

                Full Name:
                  URI:http://www.example.com/example_ca.crl

    Signature Algorithm: sha256WithRSAEncryption
         2d:46:d8:d6:57:1f:34:10:67:18:da:9f:a8:5b:05:51:68:83:
         a9:40:d2:85:92:f3:2a:85:fb:31:fe:19:17:2e:24:e1:1e:0d:
         e2:ee:e6:d2:c2:ff:3d:c4:8e:02:37:b5:bb:e5:5e:cd:aa:4a:
         b8:6f:73:6f:bf:49:67:48:d1:69:b8:f3:fa:c6:bb:1f:17:b4:
         2b:bd:fc:ed:42:5d:82:e7:1b:ec:70:8f:0c:b0:5c:2c:d0:2c:
         72:74:77:14:e1:72:d3:34:ce:a4:2f:c5:3f:20:4e:3f:6c:12:
         e5:60:b8:65:68:de:09:ab:b8:33:fb:d7:f8:77:80:88:a7:16:
         f4:2c:bd:e5:af:32:b9:08:76:0f:83:2b:f6:65:38:a9:58:20:
         54:e7:a1:ea:0f:85:82:9c:3e:87:f9:ff:a2:df:b5:3a:6b:31:
         77:08:9a:4f:64:d9:d7:7e:5b:e8:e9:b6:16:8c:63:5a:88:0b:
         80:75:12:c1:b9:7a:73:5d:b7:f4:b9:f1:c8:be:6c:a0:b1:45:
         09:1e:45:dc:ae:d1:c2:3a:ef:46:1b:34:61:44:ec:63:86:f6:
         95:d3:74:cf:ba:66:a8:a2:fa:15:85:ae:6a:a4:df:83:0a:5a:
         e9:71:e2:a3:0c:0f:8f:8c:ee:4f:25:db:34:36:eb:fd:c7:94:
         a8:2a:ad:2e
-----BEGIN CERTIFICATE-----
MIID6DCCAtCgAwIBAgIBAjANBgkqhkiG9w0BAQsFADCBjzELMAkGA1UEBhMCVVMx
ETAPBgNVBAgMCENvbG9yYWRvMRQwEgYDVQQHDAtFbmdpbmVlcmluZzETMBEGA1UE
CgwKTWluaW9uIExhYjEfMB0GCSqGSIb3DQEJARYQYWRtaW5AbWluaW9uLmxhYjEh
MB8GA1UEAwwYTWluaW9uIExhYiBGcmVlUmFkaXVzIENBMB4XDTE5MDIyMDE2MTEx
MVoXDTI5MDIxNzE2MTExMVowgY0xCzAJBgNVBAYTAlVTMREwDwYDVQQIDAhDb2xv
cmFkbzETMBEGA1UECgwKTWluaW9uIExhYjEnMCUGA1UEAwwea3Jpcy5hcm1zdHJv
bmdAMjA0OC5taW5pb24ubGFiMS0wKwYJKoZIhvcNAQkBFh5rcmlzLmFybXN0cm9u
Z0AyMDQ4Lm1pbmlvbi5sYWIwggEiMA0GCSqGSIb3DQEBAQUAA4IBDwAwggEKAoIB
AQCeWRJAkI78C4Z3umc9iz2kvRNlTW7hYTU3bn6vmGqmz0QXFojbme+Vutt/5m2D
MgwImnazfiInA5Isg5wX6llfeqGg/8HA4rC4xW0jpgg3zxHIES2/SRJS1poXHuvp
spT5sJ1NuhX0I3p7hjGjXcMYAqZo3v2+DiMiLE9PA4hk04RBSW0KRZIaoFdXhDbp
VneRr9huNKZudY3TFFor+aVy8TLatGl/Zvsg9v4KScmzl2YfuuSpvB35K8CFtcFS
yd95x0y53Vwy+Yub/tbOdAXXk0fW6yl4Gn3HC08TI788LfFKlV8ahFFnmWYuBvse
iXyMTHmhjdbxQu6VB+FMrg/VAgMBAAGjTzBNMBMGA1UdJQQMMAoGCCsGAQUFBwMC
MDYGA1UdHwQvMC0wK6ApoCeGJWh0dHA6Ly93d3cuZXhhbXBsZS5jb20vZXhhbXBs
ZV9jYS5jcmwwDQYJKoZIhvcNAQELBQADggEBAC1G2NZXHzQQZxjan6hbBVFog6lA
0oWS8yqF+zH+GRcuJOEeDeLu5tLC/z3EjgI3tbvlXs2qSrhvc2+/SWdI0Wm48/rG
ux8XtCu9/O1CXYLnG+xwjwywXCzQLHJ0dxThctM0zqQvxT8gTj9sEuVguGVo3gmr
uDP71/h3gIinFvQsveWvMrkIdg+DK/ZlOKlYIFTnoeoPhYKcPof5/6LftTprMXcI
mk9k2dd+W+jpthaMY1qIC4B1EsG5enNdt/S58ci+bKCxRQkeRdyu0cI670YbNGFE
7GOG9pXTdM+6Zqii+hWFrmqk34MKWulx4qMMD4+M7k8l2zQ26/3HlKgqrS4=
-----END CERTIFICATE-----
