Certificate:
    Data:
        Version: 3 (0x2)
        Serial Number: 3 (0x3)
        Signature Algorithm: sha256WithRSAEncryption
        Issuer: C=US, ST=Colorado, L=Engineering, O=Minion Lab/emailAddress=admin@minion.lab, CN=Minion Lab FreeRadius CA
        Validity
            Not Before: Feb 20 16:12:40 2019 GMT
            Not After : Feb 17 16:12:40 2029 GMT
        Subject: C=US, ST=Colorado, O=Minion Lab, CN=kris.armstrong@4096.minion.lab/emailAddress=kris.armstrong@4096.minion.lab
        Subject Public Key Info:
            Public Key Algorithm: rsaEncryption
                RSA Public-Key: (4096 bit)
                Modulus:
                    00:cc:89:05:af:97:f8:b8:32:e6:4d:1b:11:b3:69:
                    24:03:92:91:5c:f6:6e:f1:95:5c:06:65:9d:1a:1c:
                    22:cf:96:30:e3:fa:38:48:15:57:34:81:e5:76:68:
                    4b:00:85:b8:7a:be:6f:b2:af:7d:eb:f4:52:21:6b:
                    34:1a:66:2a:68:54:bc:20:4b:06:d9:0c:12:2f:13:
                    79:f5:95:4e:09:49:8f:37:90:19:68:4e:4e:16:ac:
                    ca:f1:ba:26:ec:69:9b:9b:1e:07:26:b8:f0:8d:b4:
                    14:02:ef:08:03:c4:31:de:fd:a5:02:06:49:9f:a5:
                    f9:7a:e0:ba:78:a4:0b:75:1e:70:a0:b5:c0:db:ba:
                    1d:80:1c:e7:5d:1e:c0:ca:ca:21:91:a4:41:e0:1e:
                    73:2a:9c:87:28:d0:48:9e:2d:a7:45:ef:b0:b9:b2:
                    0b:53:02:23:ab:4e:0e:01:63:2a:7d:aa:7a:96:2d:
                    34:f3:38:60:80:c1:e9:73:48:ed:57:2f:3a:03:4d:
                    f9:12:68:bd:cd:cf:7b:a7:b9:dc:fd:a3:9e:54:05:
                    c0:50:c9:a5:a7:93:43:5f:f8:5f:5c:04:19:4e:47:
                    53:c7:51:71:44:72:f4:fd:79:4c:f6:84:b7:10:19:
                    ac:3c:e3:da:70:f1:f4:d0:05:a6:de:3a:3e:50:74:
                    f3:c8:fa:99:79:e8:5e:3a:85:f4:b3:79:50:1a:b2:
                    ad:9b:27:88:5a:5a:09:cb:10:08:fb:91:f7:fa:db:
                    27:7b:9a:12:37:98:04:50:fc:4e:0a:33:9f:fd:b9:
                    75:16:4a:91:77:d0:bf:a5:e1:a9:a8:f5:34:cd:23:
                    08:9d:d9:cf:79:83:be:a8:11:c5:74:29:47:32:b8:
                    cd:b8:4b:2e:df:ba:e5:24:7d:21:7f:ba:7e:d0:e8:
                    61:10:fe:c4:8f:f4:24:03:8e:51:5a:57:8e:fc:17:
                    3f:1a:83:f6:76:d3:51:fb:76:ec:52:b4:9a:97:43:
                    48:53:03:57:4c:8a:26:ea:83:aa:8a:7c:c6:99:7d:
                    58:80:10:8d:a6:5f:7f:ab:36:63:9a:6e:f2:78:b2:
                    08:49:37:24:f4:cf:df:b6:02:09:51:39:e8:f8:9f:
                    99:36:27:c1:94:2d:e6:87:ec:69:0b:0d:21:f5:f1:
                    39:4f:30:16:12:52:cd:1d:68:14:8e:f2:bc:73:80:
                    4c:f2:71:55:e2:44:06:1e:db:48:10:ac:fc:73:52:
                    c1:05:83:7a:92:f5:b5:de:40:05:db:b4:6f:03:af:
                    c6:3c:f6:fe:1c:1b:49:7f:9c:6f:40:8d:49:88:0f:
                    24:12:58:ef:22:71:df:2f:2c:87:c0:dd:c4:9b:b8:
                    bf:03:c1
                Exponent: 65537 (0x10001)
        X509v3 extensions:
            X509v3 Extended Key Usage: 
                TLS Web Client Authentication
            X509v3 CRL Distribution Points: 

                Full Name:
                  URI:http://www.example.com/example_ca.crl

    Signature Algorithm: sha256WithRSAEncryption
         af:b1:df:3c:1c:ea:11:c6:45:e6:9e:f8:1d:fc:5b:b4:a6:c8:
         6c:b3:02:e6:e3:a3:5f:5b:52:2e:f3:15:1a:64:30:b0:69:83:
         ed:51:34:e0:fe:6e:cd:e8:40:f6:cb:36:59:a0:27:35:07:7c:
         f1:9d:0d:aa:71:0c:c1:bd:cf:53:e5:45:05:0f:71:63:7c:4a:
         a4:52:e1:bf:0b:f3:94:db:f2:67:fe:4e:94:45:c9:ef:72:95:
         40:00:c1:98:9b:3e:bb:a5:f4:96:fa:5f:8e:ac:bd:48:76:e7:
         6e:6b:2b:79:ac:29:b5:76:81:31:e2:34:fd:6f:52:4d:e0:4b:
         ed:17:91:8e:e2:e6:6b:b5:b3:9d:7b:c7:f2:92:a3:17:ba:7f:
         80:ff:61:5b:87:1c:85:74:db:55:0f:04:85:b4:b0:04:6d:3e:
         31:84:78:a1:40:12:68:53:8d:3a:9f:a4:04:02:5c:7a:4b:3f:
         bf:7a:7f:f9:70:bd:d5:b9:07:cd:34:4b:32:39:07:17:12:80:
         09:5a:cb:9b:c2:fb:ac:b0:f1:88:24:5d:86:a3:b7:af:13:21:
         1d:b7:40:e5:87:a1:88:d6:66:bd:1e:73:b8:36:be:83:4e:99:
         33:a5:c7:63:99:9a:5a:9c:99:8f:30:0f:d3:be:0a:7f:2e:9e:
         42:42:e2:c4
-----BEGIN CERTIFICATE-----
MIIE6DCCA9CgAwIBAgIBAzANBgkqhkiG9w0BAQsFADCBjzELMAkGA1UEBhMCVVMx
ETAPBgNVBAgMCENvbG9yYWRvMRQwEgYDVQQHDAtFbmdpbmVlcmluZzETMBEGA1UE
CgwKTWluaW9uIExhYjEfMB0GCSqGSIb3DQEJARYQYWRtaW5AbWluaW9uLmxhYjEh
MB8GA1UEAwwYTWluaW9uIExhYiBGcmVlUmFkaXVzIENBMB4XDTE5MDIyMDE2MTI0
MFoXDTI5MDIxNzE2MTI0MFowgY0xCzAJBgNVBAYTAlVTMREwDwYDVQQIDAhDb2xv
cmFkbzETMBEGA1UECgwKTWluaW9uIExhYjEnMCUGA1UEAwwea3Jpcy5hcm1zdHJv
bmdANDA5Ni5taW5pb24ubGFiMS0wKwYJKoZIhvcNAQkBFh5rcmlzLmFybXN0cm9u
Z0A0MDk2Lm1pbmlvbi5sYWIwggIiMA0GCSqGSIb3DQEBAQUAA4ICDwAwggIKAoIC
AQDMiQWvl/i4MuZNGxGzaSQDkpFc9m7xlVwGZZ0aHCLPljDj+jhIFVc0geV2aEsA
hbh6vm+yr33r9FIhazQaZipoVLwgSwbZDBIvE3n1lU4JSY83kBloTk4WrMrxuibs
aZubHgcmuPCNtBQC7wgDxDHe/aUCBkmfpfl64Lp4pAt1HnCgtcDbuh2AHOddHsDK
yiGRpEHgHnMqnIco0EieLadF77C5sgtTAiOrTg4BYyp9qnqWLTTzOGCAwelzSO1X
LzoDTfkSaL3Nz3unudz9o55UBcBQyaWnk0Nf+F9cBBlOR1PHUXFEcvT9eUz2hLcQ
Gaw849pw8fTQBabeOj5QdPPI+pl56F46hfSzeVAasq2bJ4haWgnLEAj7kff62yd7
mhI3mARQ/E4KM5/9uXUWSpF30L+l4amo9TTNIwid2c95g76oEcV0KUcyuM24Sy7f
uuUkfSF/un7Q6GEQ/sSP9CQDjlFaV478Fz8ag/Z201H7duxStJqXQ0hTA1dMiibq
g6qKfMaZfViAEI2mX3+rNmOabvJ4sghJNyT0z9+2AglROej4n5k2J8GULeaH7GkL
DSH18TlPMBYSUs0daBSO8rxzgEzycVXiRAYe20gQrPxzUsEFg3qS9bXeQAXbtG8D
r8Y89v4cG0l/nG9AjUmIDyQSWO8icd8vLIfA3cSbuL8DwQIDAQABo08wTTATBgNV
HSUEDDAKBggrBgEFBQcDAjA2BgNVHR8ELzAtMCugKaAnhiVodHRwOi8vd3d3LmV4
YW1wbGUuY29tL2V4YW1wbGVfY2EuY3JsMA0GCSqGSIb3DQEBCwUAA4IBAQCvsd88
HOoRxkXmnvgd/Fu0pshsswLm46NfW1Iu8xUaZDCwaYPtUTTg/m7N6ED2yzZZoCc1
B3zxnQ2qcQzBvc9T5UUFD3FjfEqkUuG/C/OU2/Jn/k6URcnvcpVAAMGYmz67pfSW
+l+OrL1Iduduayt5rCm1doEx4jT9b1JN4EvtF5GO4uZrtbOde8fykqMXun+A/2Fb
hxyFdNtVDwSFtLAEbT4xhHihQBJoU406n6QEAlx6Sz+/en/5cL3VuQfNNEsyOQcX
EoAJWsubwvussPGIJF2Go7evEyEdt0Dlh6GI1ma9HnO4Nr6DTpkzpcdjmZpanJmP
MA/Tvgp/Lp5CQuLE
-----END CERTIFICATE-----
