Certificate:
    Data:
        Version: 3 (0x2)
        Serial Number: 4 (0x4)
        Signature Algorithm: sha256WithRSAEncryption
        Issuer: C=US, ST=Colorado, L=Engineering, O=Minion Lab/emailAddress=admin@minion.lab, CN=Minion Lab FreeRadius CA
        Validity
            Not Before: Feb 20 16:14:12 2019 GMT
            Not After : Feb 17 16:14:12 2029 GMT
        Subject: C=US, ST=Colorado, O=Minion Lab, CN=kris.armstrong@8192.minion.lab/emailAddress=kris.armstrong@8192.minion.lab
        Subject Public Key Info:
            Public Key Algorithm: rsaEncryption
                RSA Public-Key: (8192 bit)
                Modulus:
                    00:cf:cc:69:35:7a:07:b3:84:9f:7c:cb:77:5f:a8:
                    77:4c:f7:f0:f5:4d:df:48:17:c9:d2:22:c3:9e:c3:
                    07:00:64:09:a4:ed:38:57:91:95:a9:85:e9:a6:dd:
                    3d:b7:8a:b7:30:e4:19:05:57:26:3d:a8:6e:74:70:
                    f5:50:ce:9b:44:b8:f4:ca:43:2a:e1:14:9b:61:da:
                    33:87:75:54:de:6b:30:d6:a9:03:23:c4:05:89:6b:
                    e7:5b:fc:6f:0b:4b:aa:14:25:f6:8f:88:fb:67:e7:
                    31:03:cc:3a:34:5d:cb:16:0c:38:2a:e8:15:55:fa:
                    12:e7:5d:71:17:3d:cf:e7:a6:38:04:4f:69:db:aa:
                    86:59:b5:f6:5a:c5:56:66:15:2d:68:65:bc:97:e7:
                    99:93:e8:16:f8:b3:aa:24:fa:a9:94:08:81:e1:84:
                    50:7a:6a:b0:2b:c4:31:91:01:e9:ed:7a:49:a4:5f:
                    40:c1:64:e4:46:ef:36:12:f4:bb:68:cc:e7:8b:61:
                    d4:d6:76:1e:e4:6d:1d:fb:eb:e7:e7:96:10:5f:0d:
                    59:f4:ac:e1:46:cf:37:8c:be:96:55:82:92:10:30:
                    f3:b0:74:11:39:10:e8:97:29:89:17:b5:be:0a:69:
                    2d:5f:23:d5:cb:1b:04:38:23:8e:76:31:d2:a4:ff:
                    2d:4e:be:3f:f3:91:33:9d:0b:2d:c4:5e:a8:3c:25:
                    3a:ab:50:60:97:6e:5e:48:9b:ad:09:e8:ec:dc:23:
                    d7:12:16:42:01:3a:5e:f1:93:fa:4c:a0:40:c4:61:
                    cb:b9:ca:25:f9:14:78:07:d6:b0:59:62:c5:6b:36:
                    f3:4d:88:51:27:5e:0d:88:97:73:78:18:06:32:15:
                    ba:64:02:17:c5:57:67:ed:2b:af:37:69:c9:52:55:
                    21:46:c6:69:8c:14:71:0b:3f:cb:64:9d:e0:c4:20:
                    8b:8f:bd:22:a7:36:14:27:a7:8f:a1:15:8a:58:0b:
                    ec:4c:14:b2:dd:30:b0:a1:64:c9:85:7b:c9:44:1f:
                    2f:4c:a5:bf:ba:72:39:de:1a:2b:aa:4d:bd:b0:cd:
                    d1:ef:ed:57:d8:3e:00:55:6a:ad:d4:ce:d0:72:20:
                    5e:da:16:eb:2a:c9:21:6b:ae:c9:c9:11:13:ad:15:
                    9e:7e:39:b0:22:02:01:22:7b:a9:99:95:70:e0:d4:
                    ea:d9:65:28:44:40:d4:63:52:4b:21:aa:7e:86:b5:
                    b4:15:37:e3:96:1c:10:24:d6:96:48:55:3c:1f:12:
                    38:29:50:3f:94:5c:6a:72:9c:a4:76:85:db:4b:34:
                    bc:e7:94:03:c6:a1:76:52:cb:9d:eb:aa:00:0e:26:
                    02:17:b8:ec:6f:83:95:72:7b:22:25:ca:90:56:84:
                    6d:e5:3d:9a:3a:17:d0:c8:d1:85:47:ae:b7:49:0c:
                    e3:99:90:41:61:97:bb:80:dc:cd:1e:c0:0d:c3:32:
                    df:15:f6:36:83:60:b3:a6:7b:e0:45:e8:47:2f:c1:
                    72:fb:62:99:c3:e6:a0:2f:7a:1a:e2:67:73:ee:8d:
                    51:68:31:35:5b:1d:2b:fe:a4:d9:0c:4b:fc:03:cd:
                    3a:7e:1a:2a:d4:16:c8:2e:1e:77:f8:22:6d:14:51:
                    a8:db:bd:0a:5b:0a:b3:8c:2d:4f:10:e3:09:56:e0:
                    25:f8:7a:76:b1:5e:b1:ba:dd:38:53:4a:c2:32:de:
                    9b:f0:a6:d9:23:5e:55:38:2c:f4:70:cc:f0:b7:ca:
                    02:9c:dc:68:84:ee:85:63:c3:77:a2:8d:28:eb:5d:
                    1d:20:00:c6:7a:f3:8a:6b:7b:bb:0a:09:9b:a3:06:
                    8c:1b:d4:ab:3f:e4:56:be:09:f0:20:2f:92:04:6b:
                    e1:19:c1:2b:e8:3f:f6:70:d6:51:89:ff:5e:78:6e:
                    4f:3f:d4:52:a9:d4:03:37:ae:28:e9:f1:92:48:af:
                    3c:9d:75:2d:8a:f6:cb:96:a9:35:e5:51:d4:18:d0:
                    95:c5:4b:63:d4:1f:1c:bd:3d:54:d0:ba:3b:7b:4b:
                    f4:c8:43:c6:97:5b:57:b4:db:b4:d0:00:bf:70:3f:
                    2a:e4:99:78:a5:38:73:a5:20:17:ae:a0:08:62:8e:
                    a8:77:2a:a4:6d:4d:d8:8f:ed:e7:64:e5:28:34:05:
                    a2:0e:47:d2:be:d4:32:33:b6:7e:aa:a1:ae:bd:2b:
                    be:a4:37:f8:43:e1:c9:d6:6a:6d:ce:14:87:d7:64:
                    49:30:e5:8c:69:c9:57:54:b7:61:b9:ec:ab:04:71:
                    3e:b8:b4:b0:4a:5e:20:d3:c2:79:1b:1f:6f:f4:d6:
                    d6:48:dc:cd:58:5d:8a:57:0b:10:24:18:1c:e4:34:
                    60:38:30:a3:7c:81:55:71:e2:3f:76:5d:fd:10:97:
                    11:e6:2b:d1:54:81:70:d3:58:79:f8:d4:a6:a6:a9:
                    a8:82:47:d5:37:5c:77:92:fc:8c:f3:86:ab:d9:53:
                    59:dc:41:53:d5:8f:57:56:0f:66:b6:d1:e0:df:5c:
                    dd:85:d3:50:96:9c:77:5d:9c:ea:97:d9:1b:e9:b4:
                    9e:45:3a:86:29:ba:38:17:e9:16:d6:de:d8:b9:36:
                    95:88:6c:f0:23:d5:f8:9b:29:18:55:dc:cf:27:97:
                    90:1d:e3:a3:86:9c:9c:1c:51:7c:b4:6b:ad:8c:e2:
                    0b:27:ba:60:ff:b8:d4:38:2f:17:5e:1c:7d:0e:c7:
                    82:27:aa:4a:7d
                Exponent: 65537 (0x10001)
        X509v3 extensions:
            X509v3 Extended Key Usage: 
                TLS Web Client Authentication
            X509v3 CRL Distribution Points: 

                Full Name:
                  URI:http://www.example.com/example_ca.crl

    Signature Algorithm: sha256WithRSAEncryption
         67:df:d8:26:3c:71:70:bb:1d:eb:c9:7d:5b:08:54:c5:99:98:
         f4:ca:58:51:58:e9:00:e6:d6:74:f8:df:a0:30:f4:10:b2:cd:
         d8:9d:ff:d1:3d:af:fe:ca:71:bf:31:3d:20:48:2f:62:ff:3f:
         76:4a:b6:94:e0:2f:2e:c4:c0:25:4e:60:c4:56:50:aa:19:52:
         8c:a9:31:60:f2:f1:34:e5:76:71:ac:c7:ad:dd:d4:05:81:a0:
         d7:20:de:91:0c:47:98:67:30:7b:0a:88:8f:8d:a9:9f:95:97:
         4e:be:f0:b4:21:43:02:f0:fd:9a:72:7a:a2:16:7d:d8:66:3c:
         78:7e:50:a8:da:34:a3:f9:f1:aa:dd:b3:00:36:a3:1d:7f:38:
         a9:54:38:40:a3:9f:2f:41:24:07:66:f3:1c:13:6a:9a:9d:19:
         bb:da:c8:c6:89:31:1d:4f:1e:39:8c:49:6a:83:1d:aa:16:2f:
         1b:24:3b:f4:05:51:65:28:94:08:1d:fd:a0:b5:86:3c:44:c1:
         2b:c8:58:a9:54:08:e7:76:24:1b:b0:cf:9e:8f:cf:90:9c:ec:
         c2:9f:a9:a1:48:79:05:a4:b3:df:a3:a8:fe:4e:06:9a:07:04:
         46:92:99:c6:2d:e1:81:48:8c:74:5e:26:b9:95:46:fe:49:87:
         56:c7:25:b3
-----BEGIN CERTIFICATE-----
MIIG6DCCBdCgAwIBAgIBBDANBgkqhkiG9w0BAQsFADCBjzELMAkGA1UEBhMCVVMx
ETAPBgNVBAgMCENvbG9yYWRvMRQwEgYDVQQHDAtFbmdpbmVlcmluZzETMBEGA1UE
CgwKTWluaW9uIExhYjEfMB0GCSqGSIb3DQEJARYQYWRtaW5AbWluaW9uLmxhYjEh
MB8GA1UEAwwYTWluaW9uIExhYiBGcmVlUmFkaXVzIENBMB4XDTE5MDIyMDE2MTQx
MloXDTI5MDIxNzE2MTQxMlowgY0xCzAJBgNVBAYTAlVTMREwDwYDVQQIDAhDb2xv
cmFkbzETMBEGA1UECgwKTWluaW9uIExhYjEnMCUGA1UEAwwea3Jpcy5hcm1zdHJv
bmdAODE5Mi5taW5pb24ubGFiMS0wKwYJKoZIhvcNAQkBFh5rcmlzLmFybXN0cm9u
Z0A4MTkyLm1pbmlvbi5sYWIwggQiMA0GCSqGSIb3DQEBAQUAA4IEDwAwggQKAoIE
AQDPzGk1egezhJ98y3dfqHdM9/D1Td9IF8nSIsOewwcAZAmk7ThXkZWphemm3T23
ircw5BkFVyY9qG50cPVQzptEuPTKQyrhFJth2jOHdVTeazDWqQMjxAWJa+db/G8L
S6oUJfaPiPtn5zEDzDo0XcsWDDgq6BVV+hLnXXEXPc/npjgET2nbqoZZtfZaxVZm
FS1oZbyX55mT6Bb4s6ok+qmUCIHhhFB6arArxDGRAentekmkX0DBZORG7zYS9Lto
zOeLYdTWdh7kbR376+fnlhBfDVn0rOFGzzeMvpZVgpIQMPOwdBE5EOiXKYkXtb4K
aS1fI9XLGwQ4I452MdKk/y1Ovj/zkTOdCy3EXqg8JTqrUGCXbl5Im60J6OzcI9cS
FkIBOl7xk/pMoEDEYcu5yiX5FHgH1rBZYsVrNvNNiFEnXg2Il3N4GAYyFbpkAhfF
V2ftK683aclSVSFGxmmMFHELP8tkneDEIIuPvSKnNhQnp4+hFYpYC+xMFLLdMLCh
ZMmFe8lEHy9Mpb+6cjneGiuqTb2wzdHv7VfYPgBVaq3UztByIF7aFusqySFrrsnJ
EROtFZ5+ObAiAgEie6mZlXDg1OrZZShEQNRjUkshqn6GtbQVN+OWHBAk1pZIVTwf
EjgpUD+UXGpynKR2hdtLNLznlAPGoXZSy53rqgAOJgIXuOxvg5VyeyIlypBWhG3l
PZo6F9DI0YVHrrdJDOOZkEFhl7uA3M0ewA3DMt8V9jaDYLOme+BF6EcvwXL7YpnD
5qAvehriZ3PujVFoMTVbHSv+pNkMS/wDzTp+GirUFsguHnf4Im0UUajbvQpbCrOM
LU8Q4wlW4CX4enaxXrG63ThTSsIy3pvwptkjXlU4LPRwzPC3ygKc3GiE7oVjw3ei
jSjrXR0gAMZ684pre7sKCZujBowb1Ks/5Fa+CfAgL5IEa+EZwSvoP/Zw1lGJ/154
bk8/1FKp1AM3rijp8ZJIrzyddS2K9suWqTXlUdQY0JXFS2PUHxy9PVTQujt7S/TI
Q8aXW1e027TQAL9wPyrkmXilOHOlIBeuoAhijqh3KqRtTdiP7edk5Sg0BaIOR9K+
1DIztn6qoa69K76kN/hD4cnWam3OFIfXZEkw5YxpyVdUt2G57KsEcT64tLBKXiDT
wnkbH2/01tZI3M1YXYpXCxAkGBzkNGA4MKN8gVVx4j92Xf0QlxHmK9FUgXDTWHn4
1KamqaiCR9U3XHeS/IzzhqvZU1ncQVPVj1dWD2a20eDfXN2F01CWnHddnOqX2Rvp
tJ5FOoYpujgX6RbW3ti5NpWIbPAj1fibKRhV3M8nl5Ad46OGnJwcUXy0a62M4gsn
umD/uNQ4LxdeHH0Ox4Inqkp9AgMBAAGjTzBNMBMGA1UdJQQMMAoGCCsGAQUFBwMC
MDYGA1UdHwQvMC0wK6ApoCeGJWh0dHA6Ly93d3cuZXhhbXBsZS5jb20vZXhhbXBs
ZV9jYS5jcmwwDQYJKoZIhvcNAQELBQADggEBAGff2CY8cXC7HevJfVsIVMWZmPTK
WFFY6QDm1nT436Aw9BCyzdid/9E9r/7Kcb8xPSBIL2L/P3ZKtpTgLy7EwCVOYMRW
UKoZUoypMWDy8TTldnGsx63d1AWBoNcg3pEMR5hnMHsKiI+NqZ+Vl06+8LQhQwLw
/ZpyeqIWfdhmPHh+UKjaNKP58ardswA2ox1/OKlUOECjny9BJAdm8xwTapqdGbva
yMaJMR1PHjmMSWqDHaoWLxskO/QFUWUolAgd/aC1hjxEwSvIWKlUCOd2JBuwz56P
z5Cc7MKfqaFIeQWks9+jqP5OBpoHBEaSmcYt4YFIjHReJrmVRv5Jh1bHJbM=
-----END CERTIFICATE-----
