Certificate:
    Data:
        Version: 3 (0x2)
        Serial Number: 5 (0x5)
        Signature Algorithm: sha256WithRSAEncryption
        Issuer: C=US, ST=Colorado, L=Engineering, O=Minion Lab/emailAddress=admin@minion.lab, CN=Minion Lab FreeRadius CA
        Validity
            Not Before: Mar 25 17:38:08 2019 GMT
            Not After : Mar 22 17:38:08 2029 GMT
        Subject: C=US, ST=Colorado, O=Minion Lab, CN=freeradius.minion.lab/emailAddress=admin@minion.lab
        Subject Public Key Info:
            Public Key Algorithm: rsaEncryption
                RSA Public-Key: (2048 bit)
                Modulus:
                    00:e6:63:ba:b7:b7:1a:db:cc:39:53:07:68:f5:07:
                    b4:65:db:7c:47:f1:9b:07:8f:2e:2d:23:fe:e4:71:
                    13:76:bc:5e:fd:d9:ad:52:63:ae:e5:e2:10:50:4f:
                    39:63:ab:b6:2e:81:42:22:3b:f4:10:54:22:ff:17:
                    1c:69:70:c7:6c:f8:4f:a1:94:8d:23:fa:be:7d:6a:
                    04:b4:0d:b6:47:5b:f1:aa:a0:1f:60:75:83:cd:38:
                    a2:66:89:37:37:c5:26:3b:03:33:68:d8:6d:09:17:
                    88:ef:e7:d7:58:f4:33:e2:7f:92:b3:93:af:c6:1c:
                    5d:61:3a:00:01:01:62:8d:d9:7d:f1:3a:13:91:4d:
                    6f:69:5b:ff:c0:91:43:36:04:a5:d0:ca:88:80:20:
                    b6:d7:a9:38:d3:d8:0c:80:f4:cb:f2:55:bc:85:14:
                    1c:bf:b8:9c:ef:47:d8:94:55:f0:04:50:1b:84:f5:
                    54:c5:0a:29:2c:5f:bc:b1:80:11:86:46:a9:8c:74:
                    af:21:fc:3d:e4:01:c5:3e:ce:9e:a4:07:c4:31:0a:
                    e2:1d:2b:8a:ee:5e:4a:73:7b:76:66:5c:b0:b8:40:
                    15:26:70:b3:cf:f2:a6:c4:0a:22:18:3c:c1:f8:fc:
                    97:b9:37:e0:07:ae:a3:bb:74:66:67:de:20:0a:56:
                    70:fd
                Exponent: 65537 (0x10001)
        X509v3 extensions:
            X509v3 Extended Key Usage: 
                TLS Web Server Authentication
            X509v3 CRL Distribution Points: 

                Full Name:
                  URI:http://www.example.com/example_ca.crl

    Signature Algorithm: sha256WithRSAEncryption
         7f:76:d4:c1:74:0a:fe:7e:af:f2:35:0d:3b:af:9b:80:71:56:
         4b:a3:70:0a:12:c9:04:d4:c6:d1:26:b9:71:31:86:f3:67:1f:
         0b:1c:53:df:14:c6:cd:4a:2a:c5:f9:ce:e0:b9:5e:42:65:e5:
         40:b0:9c:7b:c4:e0:de:9f:47:ca:e2:fa:59:99:36:6c:f3:2a:
         a9:4f:18:81:fb:62:7b:f3:67:75:8c:5b:09:f3:c6:8d:a8:e7:
         4e:89:52:8e:b9:59:2e:0e:18:76:d1:c5:35:4b:64:f7:45:de:
         ab:cf:30:af:ce:66:96:68:2a:64:f8:cc:5c:2a:82:f1:5d:cc:
         8d:3b:31:78:b6:20:ab:9f:52:9d:f8:b1:25:bf:c2:19:83:49:
         64:20:89:b1:c6:67:f4:8e:76:36:ff:13:97:58:8a:94:fc:6d:
         f8:22:80:2e:c0:d2:25:0e:7f:36:9b:0d:25:d3:4b:9e:73:5b:
         89:ea:47:32:e6:34:d0:5d:3e:ea:c6:8b:29:19:30:6b:d3:bf:
         93:83:dc:55:94:d5:ae:63:00:04:bb:c8:43:03:b7:dd:b1:9d:
         f6:3b:50:80:6b:b4:31:67:3a:1e:1d:0a:42:8e:a7:f1:58:b5:
         eb:80:3a:94:1f:af:26:cb:8a:89:56:5d:13:38:1c:65:1e:5f:
         01:df:6f:35:d8:89:d0:9e:90:93:f1:1a:59:9d:3a:fc:50:fb:
         37:6d:59:bc:52:c4:c8:43:37:8d:a5:e6:ae:7b:7e:41:b1:17:
         a6:e5:e7:2f:e9:db:2a:51:87:e6:75:26:6a:2e:a4:31:fd:d9:
         14:ba:2b:b2:1e:86:e0:e6:16:ef:5f:74:45:39:18:f4:fd:b1:
         50:2d:81:d5:66:a5:a0:53:47:26:29:99:7c:0d:56:3d:05:b4:
         a2:3c:91:de:32:56:b2:26:12:6c:4f:0c:7f:62:0c:b3:1b:b7:
         0c:52:45:10:fd:4e:5b:8f:3a:db:20:22:0c:8d:0e:1c:a5:97:
         50:66:96:c8:6b:a3:33:94:09:7d:25:72:e6:da:83:bd:40:ad:
         5c:c2:95:ce:cd:32:fb:d4:fc:4d:cc:29:e0:a7:e6:78:68:5a:
         1e:78:a3:76:73:41:81:4e:60:de:c1:95:37:40:f4:d1:b6:bc:
         56:fa:c0:82:cd:95:72:35:44:82:86:26:ba:4e:d4:1e:3c:a9:
         40:36:be:b7:5b:a8:09:d4:0f:1a:e8:e2:bf:a8:ba:b9:c5:dd:
         f0:35:75:3c:e4:34:7f:3f:24:c4:c8:fb:b7:e4:aa:95:c7:6e:
         55:be:32:33:50:d4:c1:e0:74:3e:db:3c:35:ed:df:75:f7:f4:
         e1:a7:1e:98:9b:d9:a5:ea
-----BEGIN CERTIFICATE-----
MIIE0DCCArigAwIBAgIBBTANBgkqhkiG9w0BAQsFADCBjzELMAkGA1UEBhMCVVMx
ETAPBgNVBAgMCENvbG9yYWRvMRQwEgYDVQQHDAtFbmdpbmVlcmluZzETMBEGA1UE
CgwKTWluaW9uIExhYjEfMB0GCSqGSIb3DQEJARYQYWRtaW5AbWluaW9uLmxhYjEh
MB8GA1UEAwwYTWluaW9uIExhYiBGcmVlUmFkaXVzIENBMB4XDTE5MDMyNTE3Mzgw
OFoXDTI5MDMyMjE3MzgwOFowdjELMAkGA1UEBhMCVVMxETAPBgNVBAgMCENvbG9y
YWRvMRMwEQYDVQQKDApNaW5pb24gTGFiMR4wHAYDVQQDDBVmcmVlcmFkaXVzLm1p
bmlvbi5sYWIxHzAdBgkqhkiG9w0BCQEWEGFkbWluQG1pbmlvbi5sYWIwggEiMA0G
CSqGSIb3DQEBAQUAA4IBDwAwggEKAoIBAQDmY7q3txrbzDlTB2j1B7Rl23xH8ZsH
jy4tI/7kcRN2vF792a1SY67l4hBQTzljq7YugUIiO/QQVCL/FxxpcMds+E+hlI0j
+r59agS0DbZHW/GqoB9gdYPNOKJmiTc3xSY7AzNo2G0JF4jv59dY9DPif5Kzk6/G
HF1hOgABAWKN2X3xOhORTW9pW//AkUM2BKXQyoiAILbXqTjT2AyA9MvyVbyFFBy/
uJzvR9iUVfAEUBuE9VTFCiksX7yxgBGGRqmMdK8h/D3kAcU+zp6kB8QxCuIdK4ru
Xkpze3ZmXLC4QBUmcLPP8qbECiIYPMH4/Je5N+AHrqO7dGZn3iAKVnD9AgMBAAGj
TzBNMBMGA1UdJQQMMAoGCCsGAQUFBwMBMDYGA1UdHwQvMC0wK6ApoCeGJWh0dHA6
Ly93d3cuZXhhbXBsZS5jb20vZXhhbXBsZV9jYS5jcmwwDQYJKoZIhvcNAQELBQAD
ggIBAH921MF0Cv5+r/I1DTuvm4BxVkujcAoSyQTUxtEmuXExhvNnHwscU98Uxs1K
KsX5zuC5XkJl5UCwnHvE4N6fR8ri+lmZNmzzKqlPGIH7YnvzZ3WMWwnzxo2o506J
Uo65WS4OGHbRxTVLZPdF3qvPMK/OZpZoKmT4zFwqgvFdzI07MXi2IKufUp34sSW/
whmDSWQgibHGZ/SOdjb/E5dYipT8bfgigC7A0iUOfzabDSXTS55zW4nqRzLmNNBd
PurGiykZMGvTv5OD3FWU1a5jAAS7yEMDt92xnfY7UIBrtDFnOh4dCkKOp/FYteuA
OpQfrybLiolWXRM4HGUeXwHfbzXYidCekJPxGlmdOvxQ+zdtWbxSxMhDN42l5q57
fkGxF6bl5y/p2ypRh+Z1JmoupDH92RS6K7IehuDmFu9fdEU5GPT9sVAtgdVmpaBT
RyYpmXwNVj0FtKI8kd4yVrImEmxPDH9iDLMbtwxSRRD9TluPOtsgIgyNDhyll1Bm
lshrozOUCX0lcubag71ArVzClc7NMvvU/E3MKeCn5nhoWh54o3ZzQYFOYN7BlTdA
9NG2vFb6wILNlXI1RIKGJrpO1B48qUA2vrdbqAnUDxro4r+ournF3fA1dTzkNH8/
JMTI+7fkqpXHblW+MjNQ1MHgdD7bPDXt33X39OGnHpib2aXq
-----END CERTIFICATE-----
