Certificate:
    Data:
        Version: 3 (0x2)
        Serial Number: 6 (0x6)
        Signature Algorithm: sha256WithRSAEncryption
        Issuer: C=US, ST=Colorado, L=Engineering, O=Minion Lab/emailAddress=admin@minion.lab, CN=Minion Lab FreeRadius CA
        Validity
            Not Before: Mar 25 17:38:08 2019 GMT
            Not After : Mar 22 17:38:08 2029 GMT
        Subject: C=US, ST=Colorado, O=Minion Lab, CN=kris.armstrong@2048minion.lab/emailAddress=kris.armstrong@2048minion.lab
        Subject Public Key Info:
            Public Key Algorithm: rsaEncryption
                RSA Public-Key: (2048 bit)
                Modulus:
                    00:ca:e9:4c:86:5b:4c:e7:e3:5b:e6:67:36:3b:06:
                    68:5f:41:82:57:b2:04:c6:8f:48:17:3d:aa:d4:91:
                    5c:8b:cf:2b:7c:02:d2:6c:60:83:3a:9f:82:ae:db:
                    00:71:ff:ed:ba:ba:7f:eb:4d:f5:56:35:75:aa:92:
                    a9:de:b9:e1:c3:66:94:94:c1:26:06:e2:24:24:3c:
                    fa:7e:26:ab:94:f6:1c:be:99:35:af:0c:e8:36:0c:
                    26:6e:84:10:11:10:e2:3e:20:51:6d:07:77:dc:28:
                    c2:18:03:d7:f0:45:07:40:09:76:c1:c7:7f:35:f8:
                    a3:17:49:c4:ad:fb:49:15:cc:eb:f5:18:3d:4f:48:
                    11:db:a7:85:09:11:a7:3b:aa:af:26:42:b0:7f:e1:
                    6f:36:f4:ad:1a:f9:f6:80:60:a8:d9:8c:4f:36:5b:
                    9e:68:bc:06:37:29:26:0a:3b:06:ad:42:ca:00:57:
                    fc:96:f7:a6:b9:2b:dd:56:92:f5:5f:a3:c5:3f:3a:
                    1f:30:18:37:2c:08:36:2d:94:48:e2:a1:ac:ac:2b:
                    67:ee:81:04:a5:19:26:47:a7:9e:15:a4:07:e8:aa:
                    65:91:a8:33:b1:88:d0:d7:ec:5c:e0:49:7d:1d:d1:
                    e1:be:15:94:99:5e:fd:99:3c:ff:b7:8f:7f:15:9a:
                    ec:cb
                Exponent: 65537 (0x10001)
        X509v3 extensions:
            X509v3 Extended Key Usage: 
                TLS Web Client Authentication
            X509v3 CRL Distribution Points: 

                Full Name:
                  URI:http://www.example.com/example_ca.crl

    Signature Algorithm: sha256WithRSAEncryption
         65:8e:23:05:7b:43:02:8e:77:92:43:74:a7:63:ba:f2:d1:96:
         cf:04:5e:21:37:ce:1f:e5:06:06:21:cf:e1:2b:c7:db:c7:32:
         07:5d:28:35:eb:73:12:2c:e9:71:49:39:90:bb:a5:83:00:4c:
         83:5a:6f:f3:cb:6e:37:85:af:1e:b2:62:8b:8f:71:a1:4a:87:
         af:9a:c5:38:fe:70:43:a6:15:9d:80:4f:0f:38:f5:18:05:d0:
         50:19:8d:76:18:fe:5c:10:9d:f4:73:4e:59:2b:52:e2:45:f9:
         97:2f:17:1a:0f:cc:de:cf:29:7b:22:6a:fb:3e:c9:e8:6e:23:
         96:af:7b:62:cd:7e:05:6a:66:2c:27:cb:a3:58:66:a4:80:91:
         b0:64:a1:ce:c3:e6:83:65:49:17:a1:86:1d:37:02:23:4b:8f:
         74:d7:93:6d:0f:e2:08:4e:13:65:22:87:09:8a:bd:8b:3a:5a:
         0d:e8:2a:0d:e2:e5:39:e5:78:a4:f8:c4:d3:a1:b9:38:71:2e:
         70:9f:aa:a5:65:b6:dc:b6:20:f8:82:e3:9a:20:9b:84:eb:a7:
         3c:ac:e8:8c:f3:0a:d2:29:7d:27:71:69:ac:8e:cf:3e:40:88:
         7f:c3:e2:d1:98:d8:ce:a8:7c:83:f9:e7:3a:20:e2:15:3d:47:
         1a:22:6c:f4:c9:3d:69:93:2b:e6:46:7e:9c:8d:c2:f8:46:f5:
         77:c7:c3:0b:63:9b:50:36:23:4f:e9:4b:53:5e:d2:71:2c:5d:
         88:fd:a9:4b:30:8c:15:4a:1f:7f:74:f4:06:cb:9d:ba:ef:d1:
         30:72:93:5f:7f:25:17:ef:1a:34:1f:65:d7:4d:9d:a0:d7:d0:
         ba:12:ac:f5:cb:d0:bc:d4:64:cd:1f:7c:a7:99:dd:8c:da:00:
         75:ff:0b:b4:33:ef:c3:46:58:fc:97:0e:32:ca:d6:2e:ed:00:
         2d:87:bb:d2:b0:e9:48:99:b2:d5:ee:d2:aa:5d:47:a0:4f:ea:
         02:c7:1b:8e:61:d6:05:4d:ec:a9:55:b8:04:e6:37:d2:3c:1b:
         f7:d1:33:1d:21:3a:a9:72:e7:8d:68:25:72:0d:eb:72:63:c9:
         b2:d0:ef:27:19:df:64:ca:4d:a5:c5:c2:a7:70:a2:64:28:9c:
         82:65:77:f7:a6:55:16:fa:c6:ac:cc:b5:67:8e:4e:5a:6a:06:
         11:f2:a9:36:c0:d7:ae:c3:21:87:39:69:1e:01:58:de:3f:17:
         e6:47:75:2c:77:94:bb:7a:b3:05:5e:94:4f:bf:95:24:b3:a0:
         f0:4e:67:85:99:56:a0:ee:91:5e:c5:d8:39:24:fe:42:7e:a7:
         2b:aa:8c:86:a1:46:e8:59
-----BEGIN CERTIFICATE-----
MIIE5jCCAs6gAwIBAgIBBjANBgkqhkiG9w0BAQsFADCBjzELMAkGA1UEBhMCVVMx
ETAPBgNVBAgMCENvbG9yYWRvMRQwEgYDVQQHDAtFbmdpbmVlcmluZzETMBEGA1UE
CgwKTWluaW9uIExhYjEfMB0GCSqGSIb3DQEJARYQYWRtaW5AbWluaW9uLmxhYjEh
MB8GA1UEAwwYTWluaW9uIExhYiBGcmVlUmFkaXVzIENBMB4XDTE5MDMyNTE3Mzgw
OFoXDTI5MDMyMjE3MzgwOFowgYsxCzAJBgNVBAYTAlVTMREwDwYDVQQIDAhDb2xv
cmFkbzETMBEGA1UECgwKTWluaW9uIExhYjEmMCQGA1UEAwwda3Jpcy5hcm1zdHJv
bmdAMjA0OG1pbmlvbi5sYWIxLDAqBgkqhkiG9w0BCQEWHWtyaXMuYXJtc3Ryb25n
QDIwNDhtaW5pb24ubGFiMIIBIjANBgkqhkiG9w0BAQEFAAOCAQ8AMIIBCgKCAQEA
yulMhltM5+Nb5mc2OwZoX0GCV7IExo9IFz2q1JFci88rfALSbGCDOp+CrtsAcf/t
urp/6031VjV1qpKp3rnhw2aUlMEmBuIkJDz6fiarlPYcvpk1rwzoNgwmboQQERDi
PiBRbQd33CjCGAPX8EUHQAl2wcd/NfijF0nErftJFczr9Rg9T0gR26eFCRGnO6qv
JkKwf+FvNvStGvn2gGCo2YxPNlueaLwGNykmCjsGrULKAFf8lvemuSvdVpL1X6PF
PzofMBg3LAg2LZRI4qGsrCtn7oEEpRkmR6eeFaQH6KplkagzsYjQ1+xc4El9HdHh
vhWUmV79mTz/t49/FZrsywIDAQABo08wTTATBgNVHSUEDDAKBggrBgEFBQcDAjA2
BgNVHR8ELzAtMCugKaAnhiVodHRwOi8vd3d3LmV4YW1wbGUuY29tL2V4YW1wbGVf
Y2EuY3JsMA0GCSqGSIb3DQEBCwUAA4ICAQBljiMFe0MCjneSQ3SnY7ry0ZbPBF4h
N84f5QYGIc/hK8fbxzIHXSg163MSLOlxSTmQu6WDAEyDWm/zy243ha8esmKLj3Gh
SoevmsU4/nBDphWdgE8POPUYBdBQGY12GP5cEJ30c05ZK1LiRfmXLxcaD8zezyl7
Imr7PsnobiOWr3tizX4FamYsJ8ujWGakgJGwZKHOw+aDZUkXoYYdNwIjS49015Nt
D+IIThNlIocJir2LOloN6CoN4uU55Xik+MTTobk4cS5wn6qlZbbctiD4guOaIJuE
66c8rOiM8wrSKX0ncWmsjs8+QIh/w+LRmNjOqHyD+ec6IOIVPUcaImz0yT1pkyvm
Rn6cjcL4RvV3x8MLY5tQNiNP6UtTXtJxLF2I/alLMIwVSh9/dPQGy52679EwcpNf
fyUX7xo0H2XXTZ2g19C6Eqz1y9C81GTNH3ynmd2M2gB1/wu0M+/DRlj8lw4yytYu
7QAth7vSsOlImbLV7tKqXUegT+oCxxuOYdYFTeypVbgE5jfSPBv30TMdITqpcueN
aCVyDetyY8my0O8nGd9kyk2lxcKncKJkKJyCZXf3plUW+saszLVnjk5aagYR8qk2
wNeuwyGHOWkeAVjePxfmR3Usd5S7erMFXpRPv5Uks6DwTmeFmVag7pFexdg5JP5C
fqcrqoyGoUboWQ==
-----END CERTIFICATE-----
