Certificate:
    Data:
        Version: 3 (0x2)
        Serial Number: 2 (0x2)
        Signature Algorithm: sha256WithRSAEncryption
        Issuer: C=US, ST=Colorado, L=Colorado Springs, O=LinkRunner Engineering/emailAddress=admin@linkrunner.org, CN=LinkRunner Engineering Certificate Authority
        Validity
            Not Before: Feb  8 16:35:23 2019 GMT
            Not After : Feb  5 16:35:23 2029 GMT
        Subject: C=US, ST=Colorado, O=LinkRunner Engineering, CN=user1024sha256@example.org/emailAddress=user1024sha256@example.org
        Subject Public Key Info:
            Public Key Algorithm: rsaEncryption
                RSA Public-Key: (1024 bit)
                Modulus:
                    00:ce:cd:c1:cb:ae:79:41:08:11:c1:73:c4:cf:87:
                    2b:2d:ab:da:b7:d3:3c:c3:f5:a5:64:e4:5e:64:6c:
                    c1:49:f8:5a:f7:1f:d0:c0:86:29:c7:f0:de:ec:f1:
                    0d:95:af:6c:8f:1d:35:f4:f2:e5:4a:e9:77:c2:d5:
                    b0:52:c8:54:9e:85:a0:4d:6a:d4:b4:22:b4:c5:9e:
                    7f:67:95:8c:be:f5:9f:2d:e9:63:04:e8:e2:4a:f2:
                    21:0b:64:18:09:94:7c:2d:e4:ad:f6:40:7d:d9:fc:
                    40:06:5f:af:2c:98:7a:04:e1:05:e4:90:91:7b:5d:
                    43:8b:c2:13:b7:f2:e9:61:47
                Exponent: 65537 (0x10001)
        X509v3 extensions:
            X509v3 Extended Key Usage: 
                TLS Web Client Authentication
            X509v3 CRL Distribution Points: 

                Full Name:
                  URI:http://www.example.com/example_ca.crl

    Signature Algorithm: sha256WithRSAEncryption
         cc:72:ad:3a:9c:30:fe:25:44:1f:cf:9c:e4:f5:f9:1a:11:25:
         1f:98:e6:0e:1f:53:69:e9:36:09:ff:a2:b0:5a:9b:4a:49:19:
         57:d2:04:ee:2e:31:f1:77:2d:e6:72:39:45:8c:2d:51:93:b9:
         69:71:4c:0e:2a:96:99:70:c0:ee:76:bc:44:44:4d:e9:f5:48:
         64:ac:65:bd:d8:15:5b:42:db:ae:89:28:f6:d8:7f:bf:b9:41:
         9a:fe:10:29:bb:1f:be:66:4c:c7:81:ea:fa:4c:6f:b7:96:b3:
         c3:4f:fe:c8:de:02:1f:5c:30:9f:23:cf:92:99:d1:8b:03:76:
         e3:fb:45:e6:a2:04:05:42:fe:ff:4a:e5:4c:47:f3:d8:3b:67:
         af:0d:c6:60:db:e9:bb:97:19:c0:d8:a4:eb:88:ce:4d:e9:fa:
         9b:9b:31:6c:54:a7:61:85:54:df:c3:d1:65:e5:69:21:16:01:
         db:f3:3a:99:e4:47:47:93:73:9a:64:a2:6d:59:a7:f2:a8:14:
         d5:95:3e:9c:a8:7c:9d:5d:df:d6:e5:1f:76:fc:d0:af:67:28:
         4e:ad:a4:8c:a3:8c:31:8c:2a:8a:d5:5e:89:9e:78:11:ff:07:
         f1:68:93:4c:4d:bf:a7:8a:d9:45:06:f4:79:62:dc:ed:a7:10:
         db:70:7f:b8:51:16:81:5c:6f:f2:51:f0:30:75:da:75:91:70:
         a6:be:bc:21:3c:6f:2e:c0:2e:63:01:4b:9d:d8:4b:7c:23:95:
         4d:48:4a:9e:0a:fa:2d:12:19:0b:54:2b:c5:42:c4:6a:90:ee:
         19:17:76:15:cd:fa:8c:2e:52:97:ef:ad:9e:e8:3e:50:2a:b7:
         01:b0:29:4b:c7:00:e3:35:13:3d:48:ea:16:f1:67:52:09:51:
         48:61:35:d9:31:bf:0a:8e:9e:ba:be:02:45:5e:dd:63:48:ba:
         54:34:46:35:7d:41:bc:6c:f6:36:7c:49:19:28:01:d4:16:5a:
         0d:f4:43:c2:48:d5:43:46:1b:3a:53:64:3f:04:b7:46:2a:e6:
         60:5d:62:b5:46:15:b1:77:17:22:c0:1d:e7:41:fc:d1:e7:63:
         fe:ea:e1:8e:02:ce:36:f1:96:ed:6b:7e:6e:e6:bc:75:a0:94:
         b7:d6:af:65:64:a3:69:c8:43:b2:b8:e0:2a:9d:d5:01:5f:64:
         9c:21:6a:e9:a4:6d:10:60:58:63:91:43:6b:a9:76:ec:cb:ba:
         5f:99:99:8a:0b:1d:e2:84:5d:fb:eb:21:d3:2f:81:2f:75:a9:
         a6:9e:8e:ce:a3:90:5e:b5:ea:49:e2:72:19:dc:fa:d8:a9:63:
         e9:f7:14:cc:b9:9d:5b:33
-----BEGIN CERTIFICATE-----
MIIEkTCCAnmgAwIBAgIBAjANBgkqhkiG9w0BAQsFADCBuDELMAkGA1UEBhMCVVMx
ETAPBgNVBAgMCENvbG9yYWRvMRkwFwYDVQQHDBBDb2xvcmFkbyBTcHJpbmdzMR8w
HQYDVQQKDBZMaW5rUnVubmVyIEVuZ2luZWVyaW5nMSMwIQYJKoZIhvcNAQkBFhRh
ZG1pbkBsaW5rcnVubmVyLm9yZzE1MDMGA1UEAwwsTGlua1J1bm5lciBFbmdpbmVl
cmluZyBDZXJ0aWZpY2F0ZSBBdXRob3JpdHkwHhcNMTkwMjA4MTYzNTIzWhcNMjkw
MjA1MTYzNTIzWjCBkTELMAkGA1UEBhMCVVMxETAPBgNVBAgMCENvbG9yYWRvMR8w
HQYDVQQKDBZMaW5rUnVubmVyIEVuZ2luZWVyaW5nMSMwIQYDVQQDDBp1c2VyMTAy
NHNoYTI1NkBleGFtcGxlLm9yZzEpMCcGCSqGSIb3DQEJARYadXNlcjEwMjRzaGEy
NTZAZXhhbXBsZS5vcmcwgZ8wDQYJKoZIhvcNAQEBBQADgY0AMIGJAoGBAM7Nwcuu
eUEIEcFzxM+HKy2r2rfTPMP1pWTkXmRswUn4Wvcf0MCGKcfw3uzxDZWvbI8dNfTy
5Urpd8LVsFLIVJ6FoE1q1LQitMWef2eVjL71ny3pYwTo4kryIQtkGAmUfC3krfZA
fdn8QAZfryyYegThBeSQkXtdQ4vCE7fy6WFHAgMBAAGjTzBNMBMGA1UdJQQMMAoG
CCsGAQUFBwMCMDYGA1UdHwQvMC0wK6ApoCeGJWh0dHA6Ly93d3cuZXhhbXBsZS5j
b20vZXhhbXBsZV9jYS5jcmwwDQYJKoZIhvcNAQELBQADggIBAMxyrTqcMP4lRB/P
nOT1+RoRJR+Y5g4fU2npNgn/orBam0pJGVfSBO4uMfF3LeZyOUWMLVGTuWlxTA4q
lplwwO52vERETen1SGSsZb3YFVtC266JKPbYf7+5QZr+ECm7H75mTMeB6vpMb7eW
s8NP/sjeAh9cMJ8jz5KZ0YsDduP7ReaiBAVC/v9K5UxH89g7Z68NxmDb6buXGcDY
pOuIzk3p+pubMWxUp2GFVN/D0WXlaSEWAdvzOpnkR0eTc5pkom1Zp/KoFNWVPpyo
fJ1d39blH3b80K9nKE6tpIyjjDGMKorVXomeeBH/B/Fok0xNv6eK2UUG9Hli3O2n
ENtwf7hRFoFcb/JR8DB12nWRcKa+vCE8by7ALmMBS53YS3wjlU1ISp4K+i0SGQtU
K8VCxGqQ7hkXdhXN+owuUpfvrZ7oPlAqtwGwKUvHAOM1Ez1I6hbxZ1IJUUhhNdkx
vwqOnrq+AkVe3WNIulQ0RjV9Qbxs9jZ8SRkoAdQWWg30Q8JI1UNGGzpTZD8Et0Yq
5mBdYrVGFbF3FyLAHedB/NHnY/7q4Y4Czjbxlu1rfm7mvHWglLfWr2Vko2nIQ7K4
4Cqd1QFfZJwhaumkbRBgWGORQ2upduzLul+ZmYoLHeKEXfvrIdMvgS91qaaejs6j
kF616knichnc+tipY+n3FMy5nVsz
-----END CERTIFICATE-----
