Certificate:
    Data:
        Version: 3 (0x2)
        Serial Number: 3 (0x3)
        Signature Algorithm: sha256WithRSAEncryption
        Issuer: C=US, ST=Colorado, L=Colorado Springs, O=LinkRunner Engineering/emailAddress=admin@linkrunner.org, CN=LinkRunner Engineering Certificate Authority
        Validity
            Not Before: Feb  8 16:37:29 2019 GMT
            Not After : Feb  5 16:37:29 2029 GMT
        Subject: C=US, ST=Colorado, O=LinkRunner Engineering, CN=user2048sha256@example.org/emailAddress=user2048sha256@example.org
        Subject Public Key Info:
            Public Key Algorithm: rsaEncryption
                RSA Public-Key: (2048 bit)
                Modulus:
                    00:d4:43:e7:5e:c2:43:09:c4:7f:42:62:9a:27:98:
                    0c:c7:2e:cf:00:00:37:4e:dd:1f:6d:d5:8c:6d:1a:
                    f6:fa:e2:14:41:9e:76:65:05:3c:1a:e7:5e:64:4b:
                    6d:db:f7:60:36:dd:8e:1b:67:06:cf:0c:e7:35:73:
                    dc:f9:41:67:3e:2c:92:74:a4:88:79:4f:f7:0e:2e:
                    b3:df:99:26:38:be:c5:86:40:3b:c7:55:74:94:8d:
                    9d:d3:1b:ca:d9:36:3e:00:3f:d8:75:cf:7e:6f:94:
                    16:24:21:52:09:55:d8:de:93:ce:1c:78:db:eb:6f:
                    1c:5c:21:84:30:c7:fb:88:90:d7:4b:e0:b3:e4:3f:
                    a6:97:0f:a1:de:5b:b9:e9:9e:9c:ce:b0:1e:6e:cf:
                    22:62:55:1e:e2:25:5f:7c:4f:96:f5:ab:6f:16:31:
                    97:49:1c:56:00:ca:2a:e0:54:09:f4:8d:ac:ec:10:
                    64:e0:4b:04:fc:2e:b2:a3:cd:43:24:c2:c8:b0:b0:
                    57:d6:61:ed:57:17:33:4a:61:1f:d3:ef:5d:f5:71:
                    50:d2:5c:23:f7:f2:f1:bc:cc:2b:42:83:aa:59:3b:
                    07:07:84:90:94:36:ad:84:56:97:16:85:13:64:6b:
                    a9:f6:97:32:4b:e1:a2:39:af:10:d4:ee:58:63:ec:
                    5e:5d
                Exponent: 65537 (0x10001)
        X509v3 extensions:
            X509v3 Extended Key Usage: 
                TLS Web Client Authentication
            X509v3 CRL Distribution Points: 

                Full Name:
                  URI:http://www.example.com/example_ca.crl

    Signature Algorithm: sha256WithRSAEncryption
         56:ff:9f:9f:14:5e:c1:01:f7:b5:95:0d:22:1e:1a:76:fa:67:
         72:37:cd:7c:8e:e8:b2:51:1e:4b:ab:d0:9e:5f:91:a3:d1:05:
         d7:d8:53:9d:5b:4a:55:d1:9a:da:24:d6:59:33:c3:83:0c:0e:
         d4:65:7b:22:2a:1a:f2:d7:3b:73:96:a5:0f:a2:4a:a1:78:eb:
         20:67:7b:67:ad:9c:22:21:78:c5:45:b2:4e:e7:50:55:f7:b9:
         ac:2d:de:b6:f0:c8:8f:a4:a3:c7:3c:21:dd:ef:9b:93:7c:f0:
         02:9d:9c:e6:ff:99:ac:83:7d:01:38:f7:4c:b6:cb:8a:8c:71:
         c2:7a:bc:4c:ee:d3:30:8c:c4:f1:ff:5b:50:90:4d:c7:91:f6:
         ce:d0:6b:fc:b2:59:1e:31:eb:35:0c:19:3d:53:1e:4c:54:6e:
         f3:f8:a2:24:4c:6c:d8:81:37:cb:f7:cf:91:ef:f4:73:da:ec:
         e2:25:95:c2:6e:3d:33:b8:2c:3d:1b:6f:98:1c:ef:30:74:9f:
         fd:14:77:4e:03:84:f8:2e:4d:9f:a6:d8:21:2a:88:32:db:00:
         b9:8b:b6:ac:e0:05:1c:6f:3c:d7:fe:f4:6f:ba:53:a4:37:1d:
         ac:df:70:5c:0d:24:af:88:50:7e:76:26:be:4c:e9:26:77:d6:
         63:57:74:ae:8c:8a:88:ce:00:2e:c5:28:ca:31:85:21:7e:3c:
         cb:19:92:63:12:c0:da:71:72:e5:ef:ca:ae:54:65:82:60:5c:
         b0:6c:5b:78:01:dc:d9:4a:83:ce:5a:4b:85:d3:1a:a0:24:24:
         6d:0c:10:99:d0:b8:a7:37:a0:6d:7a:66:15:6a:4e:86:ca:85:
         30:35:9f:97:a5:35:77:28:99:22:2e:15:2c:86:cc:b5:22:7e:
         fe:e9:72:de:04:ae:f3:41:67:cf:f1:1a:5a:8a:0a:50:94:2f:
         55:5c:af:f1:2b:a5:3f:bd:1b:8f:14:ed:e0:e9:6c:79:7b:34:
         05:b6:35:0e:74:d9:5e:eb:2a:c3:15:bc:d7:1e:a2:7d:54:1e:
         6d:e3:a9:3b:82:f4:7e:34:b7:a6:4a:4c:d7:bf:24:44:6b:ea:
         d3:21:31:8b:0a:2c:ea:65:49:20:33:de:e5:3b:2d:98:b8:e5:
         7e:ae:e4:95:4b:02:ac:fd:cb:cb:e1:64:90:4e:58:67:68:7d:
         74:7b:07:58:5a:87:84:8c:01:6c:4e:94:7a:fb:26:ca:3d:1f:
         7e:4d:a3:3c:23:71:2e:ba:38:b0:24:ce:31:48:fa:d5:77:c3:
         ba:f3:ce:1a:8f:22:86:3c:b8:f2:58:d9:37:60:74:77:09:74:
         23:68:42:ed:f9:4d:ed:03
-----BEGIN CERTIFICATE-----
MIIFFTCCAv2gAwIBAgIBAzANBgkqhkiG9w0BAQsFADCBuDELMAkGA1UEBhMCVVMx
ETAPBgNVBAgMCENvbG9yYWRvMRkwFwYDVQQHDBBDb2xvcmFkbyBTcHJpbmdzMR8w
HQYDVQQKDBZMaW5rUnVubmVyIEVuZ2luZWVyaW5nMSMwIQYJKoZIhvcNAQkBFhRh
ZG1pbkBsaW5rcnVubmVyLm9yZzE1MDMGA1UEAwwsTGlua1J1bm5lciBFbmdpbmVl
cmluZyBDZXJ0aWZpY2F0ZSBBdXRob3JpdHkwHhcNMTkwMjA4MTYzNzI5WhcNMjkw
MjA1MTYzNzI5WjCBkTELMAkGA1UEBhMCVVMxETAPBgNVBAgMCENvbG9yYWRvMR8w
HQYDVQQKDBZMaW5rUnVubmVyIEVuZ2luZWVyaW5nMSMwIQYDVQQDDBp1c2VyMjA0
OHNoYTI1NkBleGFtcGxlLm9yZzEpMCcGCSqGSIb3DQEJARYadXNlcjIwNDhzaGEy
NTZAZXhhbXBsZS5vcmcwggEiMA0GCSqGSIb3DQEBAQUAA4IBDwAwggEKAoIBAQDU
Q+dewkMJxH9CYponmAzHLs8AADdO3R9t1YxtGvb64hRBnnZlBTwa515kS23b92A2
3Y4bZwbPDOc1c9z5QWc+LJJ0pIh5T/cOLrPfmSY4vsWGQDvHVXSUjZ3TG8rZNj4A
P9h1z35vlBYkIVIJVdjek84ceNvrbxxcIYQwx/uIkNdL4LPkP6aXD6HeW7npnpzO
sB5uzyJiVR7iJV98T5b1q28WMZdJHFYAyirgVAn0jazsEGTgSwT8LrKjzUMkwsiw
sFfWYe1XFzNKYR/T7131cVDSXCP38vG8zCtCg6pZOwcHhJCUNq2EVpcWhRNka6n2
lzJL4aI5rxDU7lhj7F5dAgMBAAGjTzBNMBMGA1UdJQQMMAoGCCsGAQUFBwMCMDYG
A1UdHwQvMC0wK6ApoCeGJWh0dHA6Ly93d3cuZXhhbXBsZS5jb20vZXhhbXBsZV9j
YS5jcmwwDQYJKoZIhvcNAQELBQADggIBAFb/n58UXsEB97WVDSIeGnb6Z3I3zXyO
6LJRHkur0J5fkaPRBdfYU51bSlXRmtok1lkzw4MMDtRleyIqGvLXO3OWpQ+iSqF4
6yBne2etnCIheMVFsk7nUFX3uawt3rbwyI+ko8c8Id3vm5N88AKdnOb/mayDfQE4
90y2y4qMccJ6vEzu0zCMxPH/W1CQTceR9s7Qa/yyWR4x6zUMGT1THkxUbvP4oiRM
bNiBN8v3z5Hv9HPa7OIllcJuPTO4LD0bb5gc7zB0n/0Ud04DhPguTZ+m2CEqiDLb
ALmLtqzgBRxvPNf+9G+6U6Q3HazfcFwNJK+IUH52Jr5M6SZ31mNXdK6MiojOAC7F
KMoxhSF+PMsZkmMSwNpxcuXvyq5UZYJgXLBsW3gB3NlKg85aS4XTGqAkJG0MEJnQ
uKc3oG16ZhVqTobKhTA1n5elNXcomSIuFSyGzLUifv7pct4ErvNBZ8/xGlqKClCU
L1Vcr/ErpT+9G48U7eDpbHl7NAW2NQ502V7rKsMVvNceon1UHm3jqTuC9H40t6ZK
TNe/JERr6tMhMYsKLOplSSAz3uU7LZi45X6u5JVLAqz9y8vhZJBOWGdofXR7B1ha
h4SMAWxOlHr7Jso9H35NozwjcS66OLAkzjFI+tV3w7rzzhqPIoY8uPJY2TdgdHcJ
dCNoQu35Te0D
-----END CERTIFICATE-----
