Certificate:
    Data:
        Version: 3 (0x2)
        Serial Number: 4 (0x4)
        Signature Algorithm: sha256WithRSAEncryption
        Issuer: C=US, ST=Colorado, L=Colorado Springs, O=LinkRunner Engineering/emailAddress=admin@linkrunner.org, CN=LinkRunner Engineering Certificate Authority
        Validity
            Not Before: Feb  8 16:38:30 2019 GMT
            Not After : Feb  5 16:38:30 2029 GMT
        Subject: C=US, ST=Colorado, O=LinkRunner Engineering, CN=user4096sha256@example.org/emailAddress=user4096sha256@example.org
        Subject Public Key Info:
            Public Key Algorithm: rsaEncryption
                RSA Public-Key: (4096 bit)
                Modulus:
                    00:e3:00:7d:02:b3:d0:6f:6d:b1:e3:dc:01:0c:1b:
                    8c:bf:00:6a:3b:32:2b:af:e8:52:e6:df:f8:ff:b8:
                    8c:dc:68:85:00:4f:5f:f0:e7:b6:4c:1d:16:d4:be:
                    f1:37:c8:4b:e0:d7:b7:25:c7:b9:e3:20:7c:fa:23:
                    7f:48:81:8f:bc:7a:61:a6:04:28:21:c0:97:05:db:
                    0d:5b:a0:bc:08:c9:80:27:b8:44:81:38:33:b9:c8:
                    5a:84:c4:92:c8:a8:58:09:65:c0:f9:66:fc:86:4a:
                    2c:5b:6b:57:d3:04:bd:f4:4e:a0:bd:07:6c:7b:07:
                    02:30:11:74:8f:ff:96:1e:04:18:cc:b3:1c:9d:cd:
                    5c:e8:ce:d1:11:47:d0:66:41:01:8c:2c:04:2a:f0:
                    4b:87:97:8d:c5:d5:17:46:75:aa:69:16:41:67:76:
                    0b:40:f2:27:fa:a7:14:88:3b:84:02:24:c3:2f:4c:
                    0a:a1:d8:3b:fd:06:74:8f:07:bf:c5:9f:79:1c:f5:
                    b7:28:9c:f6:6a:bb:ae:42:bb:97:28:56:c6:1f:4e:
                    01:ff:b6:ac:02:32:0b:20:08:07:d1:fa:a5:aa:a6:
                    14:7c:03:10:a4:31:5c:58:67:10:7b:5b:77:6c:7d:
                    2d:b9:12:7b:02:81:d2:12:40:56:83:bc:40:b1:60:
                    aa:86:f7:34:56:06:84:a8:e4:1d:0e:73:60:1f:27:
                    c3:cd:16:46:c5:03:3a:59:4c:9b:d3:f8:66:d9:0d:
                    02:c2:22:dc:d0:ec:8e:c0:83:1f:47:b8:3a:15:13:
                    3d:9a:bc:e3:64:3f:ba:48:51:69:68:78:4f:9f:d9:
                    38:53:11:29:68:2a:4e:78:be:74:d4:b3:1e:3b:bb:
                    59:b7:07:22:13:00:43:7f:86:47:e5:05:6a:6e:5d:
                    7f:69:83:a4:2b:4d:d3:a4:b5:8c:15:29:fc:23:91:
                    3c:69:db:6f:09:fd:f1:4e:03:c2:1e:23:d2:78:64:
                    44:7d:5e:1b:b9:89:10:57:01:4e:3b:de:54:e6:ad:
                    7d:94:89:e3:6a:f0:97:c3:c1:55:77:6a:be:47:56:
                    4e:eb:5d:ef:7d:ed:08:bf:aa:b6:b2:16:99:d8:2e:
                    02:81:4a:1d:a8:b7:4a:cc:e3:36:50:c1:a4:6d:77:
                    b6:04:48:47:34:54:84:7c:79:de:11:74:4b:59:bb:
                    e4:05:8f:a0:70:5b:09:df:8b:29:d5:c0:f1:8c:14:
                    cb:6f:59:31:61:f1:45:bc:15:76:2f:bd:fc:6e:ea:
                    a7:28:24:3b:1b:e7:25:f9:34:37:a6:09:b7:9c:45:
                    57:b0:24:30:39:76:39:2c:52:35:d7:46:a6:05:0f:
                    64:64:fd
                Exponent: 65537 (0x10001)
        X509v3 extensions:
            X509v3 Extended Key Usage: 
                TLS Web Client Authentication
            X509v3 CRL Distribution Points: 

                Full Name:
                  URI:http://www.example.com/example_ca.crl

    Signature Algorithm: sha256WithRSAEncryption
         74:39:35:b8:17:16:72:1f:9c:fa:45:10:ce:30:b6:38:21:b3:
         08:cf:0c:3e:e2:95:e8:a7:ed:b1:41:8d:05:67:f6:1a:2c:90:
         3a:34:c6:94:0c:f4:c4:0b:fe:09:a6:77:4c:c2:33:c7:f6:b4:
         c3:05:69:1e:75:99:c1:34:09:9a:1d:11:a9:f5:79:70:50:ed:
         96:5e:27:2e:8a:c0:71:6d:c8:9a:c6:f8:7b:c9:ff:4f:c5:87:
         3e:54:99:69:26:f6:1d:d7:a1:c1:51:1b:19:7e:0b:fa:3d:3f:
         42:7f:31:e1:15:35:52:d5:84:2a:ef:57:f8:ba:04:61:a5:6d:
         b4:44:60:36:52:fd:59:03:5a:12:85:45:f1:8a:bc:e5:d9:e5:
         26:56:74:fd:df:49:de:64:96:21:61:3e:f5:0e:e2:14:36:f8:
         bd:4e:35:28:cb:8a:9d:cc:64:f4:7b:2e:ac:14:35:ec:3d:3d:
         13:9d:68:c7:d4:65:8b:f7:c3:22:dc:58:0f:f7:52:60:20:df:
         5b:4f:db:24:23:48:96:dd:cd:27:a0:cd:21:f6:57:53:65:5f:
         c8:a5:da:9e:b1:15:9c:10:a1:96:5e:34:64:da:6e:2f:34:26:
         44:da:26:41:b0:c9:3b:99:b5:13:4f:ba:e9:01:61:6a:82:98:
         7b:c5:b6:cd:ed:f0:db:fa:ff:c3:ca:54:51:10:cb:a3:c4:42:
         25:56:b5:30:84:ed:53:8f:3b:26:ad:1b:40:d2:d2:a3:05:1f:
         eb:89:d9:3b:e2:4b:72:a6:72:3b:0c:fe:07:05:fc:11:da:50:
         2c:74:07:7c:0e:42:bb:2f:d5:1e:ca:1d:b0:9c:c9:07:11:52:
         8c:26:05:17:dd:13:8c:94:09:25:23:30:88:b0:4b:59:80:34:
         ca:28:2d:80:6f:20:fa:b6:4c:48:de:6e:a3:ac:2e:80:42:58:
         58:bb:ed:50:52:de:17:6d:d9:c4:2c:e0:96:c2:0d:27:2a:9f:
         06:c1:21:75:54:14:8c:c3:8f:60:1d:a2:42:d0:80:67:96:61:
         d2:1e:42:43:17:db:93:93:93:90:a7:25:61:c8:45:da:b1:2a:
         7c:20:e2:26:a5:3e:67:22:6a:8d:11:4e:9b:cf:51:9b:91:81:
         d0:39:71:84:9b:19:40:17:5f:cf:77:c8:bb:2b:88:d1:c8:8b:
         d4:60:a3:33:fd:12:ee:2d:54:1d:84:a1:de:b9:0a:b9:a3:08:
         25:be:85:16:64:79:30:73:b3:a6:20:7a:05:d4:10:a5:cd:f8:
         e7:74:37:cc:7d:e0:9e:03:3b:8b:b1:c3:40:00:75:35:e5:54:
         4c:24:12:50:4d:00:c9:bb
-----BEGIN CERTIFICATE-----
MIIGFTCCA/2gAwIBAgIBBDANBgkqhkiG9w0BAQsFADCBuDELMAkGA1UEBhMCVVMx
ETAPBgNVBAgMCENvbG9yYWRvMRkwFwYDVQQHDBBDb2xvcmFkbyBTcHJpbmdzMR8w
HQYDVQQKDBZMaW5rUnVubmVyIEVuZ2luZWVyaW5nMSMwIQYJKoZIhvcNAQkBFhRh
ZG1pbkBsaW5rcnVubmVyLm9yZzE1MDMGA1UEAwwsTGlua1J1bm5lciBFbmdpbmVl
cmluZyBDZXJ0aWZpY2F0ZSBBdXRob3JpdHkwHhcNMTkwMjA4MTYzODMwWhcNMjkw
MjA1MTYzODMwWjCBkTELMAkGA1UEBhMCVVMxETAPBgNVBAgMCENvbG9yYWRvMR8w
HQYDVQQKDBZMaW5rUnVubmVyIEVuZ2luZWVyaW5nMSMwIQYDVQQDDBp1c2VyNDA5
NnNoYTI1NkBleGFtcGxlLm9yZzEpMCcGCSqGSIb3DQEJARYadXNlcjQwOTZzaGEy
NTZAZXhhbXBsZS5vcmcwggIiMA0GCSqGSIb3DQEBAQUAA4ICDwAwggIKAoICAQDj
AH0Cs9BvbbHj3AEMG4y/AGo7Miuv6FLm3/j/uIzcaIUAT1/w57ZMHRbUvvE3yEvg
17clx7njIHz6I39IgY+8emGmBCghwJcF2w1boLwIyYAnuESBODO5yFqExJLIqFgJ
ZcD5ZvyGSixba1fTBL30TqC9B2x7BwIwEXSP/5YeBBjMsxydzVzoztERR9BmQQGM
LAQq8EuHl43F1RdGdappFkFndgtA8if6pxSIO4QCJMMvTAqh2Dv9BnSPB7/Fn3kc
9bconPZqu65Cu5coVsYfTgH/tqwCMgsgCAfR+qWqphR8AxCkMVxYZxB7W3dsfS25
EnsCgdISQFaDvECxYKqG9zRWBoSo5B0Oc2AfJ8PNFkbFAzpZTJvT+GbZDQLCItzQ
7I7Agx9HuDoVEz2avONkP7pIUWloeE+f2ThTESloKk54vnTUsx47u1m3ByITAEN/
hkflBWpuXX9pg6QrTdOktYwVKfwjkTxp228J/fFOA8IeI9J4ZER9Xhu5iRBXAU47
3lTmrX2UieNq8JfDwVV3ar5HVk7rXe997Qi/qrayFpnYLgKBSh2ot0rM4zZQwaRt
d7YESEc0VIR8ed4RdEtZu+QFj6BwWwnfiynVwPGMFMtvWTFh8UW8FXYvvfxu6qco
JDsb5yX5NDemCbecRVewJDA5djksUjXXRqYFD2Rk/QIDAQABo08wTTATBgNVHSUE
DDAKBggrBgEFBQcDAjA2BgNVHR8ELzAtMCugKaAnhiVodHRwOi8vd3d3LmV4YW1w
bGUuY29tL2V4YW1wbGVfY2EuY3JsMA0GCSqGSIb3DQEBCwUAA4ICAQB0OTW4FxZy
H5z6RRDOMLY4IbMIzww+4pXop+2xQY0FZ/YaLJA6NMaUDPTEC/4JpndMwjPH9rTD
BWkedZnBNAmaHRGp9XlwUO2WXicuisBxbciaxvh7yf9PxYc+VJlpJvYd16HBURsZ
fgv6PT9CfzHhFTVS1YQq71f4ugRhpW20RGA2Uv1ZA1oShUXxirzl2eUmVnT930ne
ZJYhYT71DuIUNvi9TjUoy4qdzGT0ey6sFDXsPT0TnWjH1GWL98Mi3FgP91JgIN9b
T9skI0iW3c0noM0h9ldTZV/IpdqesRWcEKGWXjRk2m4vNCZE2iZBsMk7mbUTT7rp
AWFqgph7xbbN7fDb+v/DylRREMujxEIlVrUwhO1TjzsmrRtA0tKjBR/ridk74kty
pnI7DP4HBfwR2lAsdAd8DkK7L9Ueyh2wnMkHEVKMJgUX3ROMlAklIzCIsEtZgDTK
KC2AbyD6tkxI3m6jrC6AQlhYu+1QUt4XbdnELOCWwg0nKp8GwSF1VBSMw49gHaJC
0IBnlmHSHkJDF9uTk5OQpyVhyEXasSp8IOImpT5nImqNEU6bz1GbkYHQOXGEmxlA
F1/Pd8i7K4jRyIvUYKMz/RLuLVQdhKHeuQq5owglvoUWZHkwc7OmIHoF1BClzfjn
dDfMfeCeAzuLscNAAHU15VRMJBJQTQDJuw==
-----END CERTIFICATE-----
