Certificate:
    Data:
        Version: 3 (0x2)
        Serial Number: 5 (0x5)
        Signature Algorithm: sha256WithRSAEncryption
        Issuer: C=US, ST=Colorado, L=Colorado Springs, O=LinkRunner Engineering/emailAddress=admin@linkrunner.org, CN=LinkRunner Engineering Certificate Authority
        Validity
            Not Before: Feb  8 16:39:33 2019 GMT
            Not After : Feb  5 16:39:33 2029 GMT
        Subject: C=US, ST=Colorado, O=LinkRunner Engineering, CN=user8192sha256@example.org/emailAddress=user8192sha256@example.org
        Subject Public Key Info:
            Public Key Algorithm: rsaEncryption
                RSA Public-Key: (8192 bit)
                Modulus:
                    00:ac:d5:5f:88:cf:21:36:4b:74:86:92:53:1d:2c:
                    ad:7c:ef:5f:43:c4:aa:51:e3:c4:7e:33:f7:a3:85:
                    fa:b9:8b:47:df:e1:9d:00:85:50:9d:ca:e7:55:01:
                    7e:5e:af:1c:b1:12:6b:0a:6c:f7:83:2a:0f:1e:25:
                    d2:ef:90:e3:cf:6d:cb:75:e0:5a:b4:b8:ef:4d:b4:
                    74:8e:c3:d1:6f:57:41:06:ce:d6:18:81:a5:de:45:
                    47:c7:77:ed:e8:83:5d:48:fa:6a:7b:65:81:ee:76:
                    a5:cf:0f:1e:d8:3c:90:9e:0b:62:58:9c:30:45:00:
                    b1:ef:07:ce:3e:27:d5:d1:28:78:88:95:56:53:da:
                    40:53:05:c3:7d:5e:ff:67:c2:57:03:86:4d:dd:5e:
                    83:ad:0a:10:fd:6d:47:c7:4a:b0:90:12:d2:79:76:
                    84:15:a9:53:38:7f:10:d0:09:f7:74:23:a2:e6:ce:
                    83:a4:b3:63:b3:50:5c:d4:a2:20:f7:70:53:31:c8:
                    41:8e:e5:e9:81:98:e4:d7:87:29:5c:ea:8a:66:d3:
                    a8:ca:e2:c5:19:62:7c:44:2f:a8:07:98:65:54:fd:
                    1d:2d:40:bf:79:0a:20:64:42:41:0f:94:bf:c9:e9:
                    f8:29:f8:96:5e:84:e3:c5:31:d6:96:40:7a:32:04:
                    c4:bf:87:96:ab:89:bd:a6:f8:95:d7:20:65:a5:e1:
                    dc:b7:cd:f0:47:ec:09:09:e9:ee:15:1c:2e:9f:17:
                    34:d0:1f:6a:c0:4a:30:1e:2b:0c:0d:59:6b:1d:f9:
                    fe:94:a7:61:6b:f2:64:e2:d7:09:20:19:80:e7:d7:
                    0e:6f:d2:55:55:aa:33:5f:ca:6c:03:ea:78:1d:2c:
                    ff:f5:3a:9a:16:77:c1:b3:f9:fc:97:31:bb:78:cc:
                    92:e6:5a:27:66:67:82:22:bc:b1:7c:6c:b8:18:0e:
                    f9:25:47:05:ab:8a:99:17:e0:3e:63:bf:57:a2:5a:
                    0a:cd:6a:3e:ed:2e:14:37:bb:f2:46:6b:ef:0d:d7:
                    65:39:a4:79:21:ba:e7:58:4d:c5:35:d5:d3:7f:4a:
                    4d:db:64:dc:8c:39:0a:e1:17:d6:ed:e2:9c:82:71:
                    41:67:40:98:6d:5d:02:04:9a:42:90:93:ab:f9:e0:
                    99:94:81:0d:27:b2:7b:81:ac:64:e5:1b:9d:43:69:
                    27:42:f8:3a:9d:59:6c:a1:c1:70:2c:46:00:5d:00:
                    be:9d:7f:b6:6e:ad:f4:6c:7c:21:63:2f:61:dc:d4:
                    9a:18:bd:f2:b7:20:20:9c:36:4c:b9:10:17:4e:0a:
                    41:86:28:b2:43:a3:f0:53:bb:80:2b:2d:e4:26:38:
                    41:0e:4e:f4:7d:43:6e:b0:19:2a:ef:2d:c9:83:d5:
                    15:ab:95:c9:73:f5:45:46:05:ec:56:37:7c:06:b3:
                    db:94:78:b0:c4:b5:35:1f:34:26:21:d9:99:b6:cd:
                    9d:c9:da:e5:0d:13:6f:cb:c2:5c:a6:1e:c6:65:51:
                    c5:0d:ec:de:86:d4:d9:96:8d:1d:54:30:fb:a1:8a:
                    80:4c:e5:3b:d1:db:b3:41:8d:12:54:36:bf:b8:9b:
                    32:a3:bc:7e:cd:3c:29:e7:ec:43:6c:84:be:70:32:
                    5a:15:81:02:cb:54:fe:90:be:12:c2:aa:12:1a:d5:
                    b4:8a:3c:e6:af:da:d1:af:7d:bb:b1:1a:46:45:42:
                    3a:a3:a7:99:cd:d4:6e:dd:43:f3:be:d7:cb:62:b0:
                    bf:3f:95:60:41:de:12:6a:f9:41:63:93:98:30:48:
                    b5:8f:fd:b5:e8:cd:b6:5e:8d:e2:7b:35:2d:df:f2:
                    3a:4d:a0:85:93:2e:67:57:63:eb:4e:54:98:83:3e:
                    61:b4:9b:5e:fb:a8:ef:a2:3a:fb:7c:72:6b:d6:8b:
                    f8:7c:cd:08:65:9b:d9:28:6f:5d:98:e7:18:74:35:
                    5c:0b:96:78:c9:c6:c4:29:64:54:b1:db:20:30:3e:
                    7b:79:94:f3:b1:cc:56:14:56:06:b7:83:ea:86:07:
                    8f:a1:7e:10:f9:2e:8b:df:fb:96:c4:91:9b:7a:c5:
                    e6:ab:f7:d5:84:c1:50:e0:c2:87:c6:37:82:d6:b2:
                    a9:af:1b:19:b0:b0:18:fd:93:99:ed:29:49:34:f1:
                    47:dc:89:75:b0:f1:79:0c:69:5a:81:94:b9:44:9b:
                    f4:cb:db:c0:34:f8:a3:93:3c:02:62:92:ea:33:76:
                    17:3b:a9:a5:c1:9d:3f:9e:84:48:a1:4e:51:e2:e1:
                    e5:ce:82:b4:c0:bf:b5:40:d4:64:e2:27:2b:c2:cd:
                    d0:ec:c4:2b:5e:38:f4:26:ec:3a:3b:20:0e:fa:95:
                    74:3f:c7:c3:c1:4e:cc:5e:4f:82:03:ef:02:fa:db:
                    16:dd:6c:b8:94:68:1e:4c:ad:9b:c3:fc:76:f8:35:
                    83:b0:34:7c:d6:33:92:f8:46:bd:b6:8b:f0:da:f1:
                    0f:0f:69:e8:ce:b8:0c:d0:bd:71:d4:af:bf:8f:cc:
                    36:63:35:ac:3a:be:9d:75:68:60:f5:bb:d2:d9:cf:
                    3a:8b:7a:d7:6a:bd:7d:df:ed:60:63:db:80:41:48:
                    10:bf:7b:d2:c9:7c:32:f3:64:53:db:50:a2:ac:94:
                    f5:95:59:31:46:8d:04:2f:7d:92:50:37:f3:da:cd:
                    11:4a:b2:6f:71:cf:be:d7:1e:fd:32:ec:02:9c:64:
                    50:2b:4c:49:8b
                Exponent: 65537 (0x10001)
        X509v3 extensions:
            X509v3 Extended Key Usage: 
                TLS Web Client Authentication
            X509v3 CRL Distribution Points: 

                Full Name:
                  URI:http://www.example.com/example_ca.crl

    Signature Algorithm: sha256WithRSAEncryption
         b7:49:36:94:41:94:d7:31:57:2d:94:e0:7a:d9:7a:af:d3:a3:
         ce:d9:6f:a9:6c:b9:fc:a9:0e:87:b6:67:83:09:29:4f:de:ab:
         bf:c0:a1:34:02:f4:f7:77:6a:12:4c:1e:54:cd:f4:4a:bd:53:
         5b:f2:4f:af:74:32:54:c3:e9:18:2e:d9:9c:fa:6e:f5:49:46:
         a1:68:44:0d:06:80:18:23:bc:d8:56:f7:e8:69:b9:e7:e2:33:
         09:43:e3:17:4c:5e:39:8b:23:fe:e4:1f:ff:a7:21:22:a8:83:
         f2:65:35:f3:f4:5e:d6:e8:e2:94:3a:d0:f4:f0:ca:77:72:6b:
         4f:98:23:0d:63:21:03:33:2d:3e:d9:8d:60:8a:04:43:f2:15:
         3c:ef:2e:e8:19:20:a7:a2:6c:d7:d3:e4:48:77:76:32:c7:e9:
         98:61:dc:76:b5:12:ae:c6:06:cf:5a:07:d6:12:95:ee:83:3b:
         d6:45:f5:f2:f2:b6:2a:6a:79:b2:cb:82:a0:1f:c6:75:19:03:
         6c:74:ca:64:23:7c:9d:49:db:00:74:a6:f8:40:ed:91:cc:2e:
         85:98:18:64:36:dd:11:27:2a:9d:10:91:70:66:4d:48:27:6b:
         e6:05:57:75:4c:cb:38:2f:8c:16:b9:b1:fd:c8:cd:64:f1:95:
         4d:b8:15:06:fb:c9:bf:87:81:51:5c:ad:f2:c3:f3:5a:bf:89:
         b3:66:c5:c1:e4:13:17:4d:43:ad:ad:4a:79:e7:df:3f:1b:c8:
         56:96:0a:ea:73:f0:dd:49:af:11:e2:b9:c1:b1:69:e2:dc:f3:
         a6:7f:17:8e:19:21:e2:a8:d9:f1:e3:29:12:f5:e5:3b:92:ff:
         3e:db:5f:3f:7f:f9:4e:50:bf:69:c7:d7:71:76:34:29:95:f6:
         93:cc:78:38:d6:94:44:da:21:23:62:b5:6a:f8:fb:04:1a:b7:
         04:77:79:96:2d:f4:5e:7c:68:1a:1e:ff:4b:20:96:91:9a:60:
         68:e5:b4:84:03:a7:a3:e7:04:05:82:17:44:28:b4:27:52:55:
         d6:1f:5f:6d:eb:90:85:94:64:42:7f:51:4c:00:33:66:2e:80:
         e1:59:b9:63:aa:c4:3d:5f:3c:80:ba:6f:c1:8d:9b:3f:57:d0:
         95:56:a5:cf:10:76:10:00:71:15:2d:46:53:00:d8:72:ab:be:
         ef:0c:6a:69:8c:c0:6f:54:aa:5a:96:b9:6a:c0:ab:49:88:1a:
         a4:46:5b:13:50:e1:97:56:f5:c1:0f:35:48:24:fd:23:2a:c8:
         62:52:02:f1:5e:50:2c:97:07:bf:30:79:8b:55:c0:03:2e:0e:
         b7:a2:a7:44:28:ed:fd:30
-----BEGIN CERTIFICATE-----
MIIIFTCCBf2gAwIBAgIBBTANBgkqhkiG9w0BAQsFADCBuDELMAkGA1UEBhMCVVMx
ETAPBgNVBAgMCENvbG9yYWRvMRkwFwYDVQQHDBBDb2xvcmFkbyBTcHJpbmdzMR8w
HQYDVQQKDBZMaW5rUnVubmVyIEVuZ2luZWVyaW5nMSMwIQYJKoZIhvcNAQkBFhRh
ZG1pbkBsaW5rcnVubmVyLm9yZzE1MDMGA1UEAwwsTGlua1J1bm5lciBFbmdpbmVl
cmluZyBDZXJ0aWZpY2F0ZSBBdXRob3JpdHkwHhcNMTkwMjA4MTYzOTMzWhcNMjkw
MjA1MTYzOTMzWjCBkTELMAkGA1UEBhMCVVMxETAPBgNVBAgMCENvbG9yYWRvMR8w
HQYDVQQKDBZMaW5rUnVubmVyIEVuZ2luZWVyaW5nMSMwIQYDVQQDDBp1c2VyODE5
MnNoYTI1NkBleGFtcGxlLm9yZzEpMCcGCSqGSIb3DQEJARYadXNlcjgxOTJzaGEy
NTZAZXhhbXBsZS5vcmcwggQiMA0GCSqGSIb3DQEBAQUAA4IEDwAwggQKAoIEAQCs
1V+IzyE2S3SGklMdLK18719DxKpR48R+M/ejhfq5i0ff4Z0AhVCdyudVAX5erxyx
EmsKbPeDKg8eJdLvkOPPbct14Fq0uO9NtHSOw9FvV0EGztYYgaXeRUfHd+3og11I
+mp7ZYHudqXPDx7YPJCeC2JYnDBFALHvB84+J9XRKHiIlVZT2kBTBcN9Xv9nwlcD
hk3dXoOtChD9bUfHSrCQEtJ5doQVqVM4fxDQCfd0I6LmzoOks2OzUFzUoiD3cFMx
yEGO5emBmOTXhylc6opm06jK4sUZYnxEL6gHmGVU/R0tQL95CiBkQkEPlL/J6fgp
+JZehOPFMdaWQHoyBMS/h5arib2m+JXXIGWl4dy3zfBH7AkJ6e4VHC6fFzTQH2rA
SjAeKwwNWWsd+f6Up2Fr8mTi1wkgGYDn1w5v0lVVqjNfymwD6ngdLP/1OpoWd8Gz
+fyXMbt4zJLmWidmZ4IivLF8bLgYDvklRwWripkX4D5jv1eiWgrNaj7tLhQ3u/JG
a+8N12U5pHkhuudYTcU11dN/Sk3bZNyMOQrhF9bt4pyCcUFnQJhtXQIEmkKQk6v5
4JmUgQ0nsnuBrGTlG51DaSdC+DqdWWyhwXAsRgBdAL6df7ZurfRsfCFjL2Hc1JoY
vfK3ICCcNky5EBdOCkGGKLJDo/BTu4ArLeQmOEEOTvR9Q26wGSrvLcmD1RWrlclz
9UVGBexWN3wGs9uUeLDEtTUfNCYh2Zm2zZ3J2uUNE2/LwlymHsZlUcUN7N6G1NmW
jR1UMPuhioBM5TvR27NBjRJUNr+4mzKjvH7NPCnn7ENshL5wMloVgQLLVP6QvhLC
qhIa1bSKPOav2tGvfbuxGkZFQjqjp5nN1G7dQ/O+18tisL8/lWBB3hJq+UFjk5gw
SLWP/bXozbZejeJ7NS3f8jpNoIWTLmdXY+tOVJiDPmG0m177qO+iOvt8cmvWi/h8
zQhlm9kob12Y5xh0NVwLlnjJxsQpZFSx2yAwPnt5lPOxzFYUVga3g+qGB4+hfhD5
Lovf+5bEkZt6xear99WEwVDgwofGN4LWsqmvGxmwsBj9k5ntKUk08UfciXWw8XkM
aVqBlLlEm/TL28A0+KOTPAJikuozdhc7qaXBnT+ehEihTlHi4eXOgrTAv7VA1GTi
JyvCzdDsxCteOPQm7Do7IA76lXQ/x8PBTsxeT4ID7wL62xbdbLiUaB5MrZvD/Hb4
NYOwNHzWM5L4Rr22i/Da8Q8PaejOuAzQvXHUr7+PzDZjNaw6vp11aGD1u9LZzzqL
etdqvX3f7WBj24BBSBC/e9LJfDLzZFPbUKKslPWVWTFGjQQvfZJQN/PazRFKsm9x
z77XHv0y7AKcZFArTEmLAgMBAAGjTzBNMBMGA1UdJQQMMAoGCCsGAQUFBwMCMDYG
A1UdHwQvMC0wK6ApoCeGJWh0dHA6Ly93d3cuZXhhbXBsZS5jb20vZXhhbXBsZV9j
YS5jcmwwDQYJKoZIhvcNAQELBQADggIBALdJNpRBlNcxVy2U4HrZeq/To87Zb6ls
ufypDoe2Z4MJKU/eq7/AoTQC9Pd3ahJMHlTN9Eq9U1vyT690MlTD6Rgu2Zz6bvVJ
RqFoRA0GgBgjvNhW9+hpuefiMwlD4xdMXjmLI/7kH/+nISKog/JlNfP0Xtbo4pQ6
0PTwyndya0+YIw1jIQMzLT7ZjWCKBEPyFTzvLugZIKeibNfT5Eh3djLH6Zhh3Ha1
Eq7GBs9aB9YSle6DO9ZF9fLytipqebLLgqAfxnUZA2x0ymQjfJ1J2wB0pvhA7ZHM
LoWYGGQ23REnKp0QkXBmTUgna+YFV3VMyzgvjBa5sf3IzWTxlU24FQb7yb+HgVFc
rfLD81q/ibNmxcHkExdNQ62tSnnn3z8byFaWCupz8N1JrxHiucGxaeLc86Z/F44Z
IeKo2fHjKRL15TuS/z7bXz9/+U5Qv2nH13F2NCmV9pPMeDjWlETaISNitWr4+wQa
twR3eZYt9F58aBoe/0sglpGaYGjltIQDp6PnBAWCF0QotCdSVdYfX23rkIWUZEJ/
UUwAM2YugOFZuWOqxD1fPIC6b8GNmz9X0JVWpc8QdhAAcRUtRlMA2HKrvu8MammM
wG9UqlqWuWrAq0mIGqRGWxNQ4ZdW9cEPNUgk/SMqyGJSAvFeUCyXB78weYtVwAMu
Dreip0Qo7f0w
-----END CERTIFICATE-----
