Certificate:
    Data:
        Version: 3 (0x2)
        Serial Number: 7 (0x7)
        Signature Algorithm: sha256WithRSAEncryption
        Issuer: C=US, ST=Colorado, L=Engineering, O=Minion Lab/emailAddress=admin@minion.lab, CN=Minion Lab FreeRadius CA
        Validity
            Not Before: May  8 15:33:04 2019 GMT
            Not After : May  5 15:33:04 2029 GMT
        Subject: C=US, ST=Colorado, O=Minion Lab, CN=kris.armstrong@4096minion.lab/emailAddress=kris.armstrong@4096minion.lab
        Subject Public Key Info:
            Public Key Algorithm: rsaEncryption
                RSA Public-Key: (4096 bit)
                Modulus:
                    00:c5:01:9b:08:a8:84:3a:eb:6f:d4:28:d1:c2:9f:
                    86:c2:89:40:11:df:e5:b0:da:e5:05:e2:b1:69:d0:
                    37:33:eb:84:3a:34:2e:72:1a:f5:5a:13:1d:3b:f0:
                    10:10:79:eb:c8:bb:d6:e6:bc:6a:e4:73:7d:26:0d:
                    80:0c:2f:1d:d2:02:27:2c:b2:18:4c:5d:a7:c3:a0:
                    91:57:3b:92:bd:17:74:77:5c:e5:fa:3c:ad:a2:88:
                    97:25:e1:0c:20:27:4b:b8:b2:d1:cd:2b:ca:c3:66:
                    58:c5:4f:6a:a6:03:a1:60:1d:04:fe:de:eb:1a:98:
                    51:3e:04:d3:28:af:75:3d:c1:6b:b2:79:9d:5f:0b:
                    81:6d:f2:72:c5:f5:ec:91:e5:67:94:bb:6c:10:77:
                    5f:cc:bf:d0:92:10:1f:53:e9:e6:16:dc:b1:d1:df:
                    e8:a1:5d:1e:72:6b:f9:94:6b:90:3a:f3:84:af:2d:
                    16:bc:91:6d:d4:f8:bc:da:91:af:56:ae:28:f3:bb:
                    96:fe:e4:db:af:60:a8:2b:d8:25:1f:dd:7f:3d:e0:
                    34:b8:81:b7:9d:18:23:81:d0:f5:5d:ad:94:bf:ee:
                    fc:11:3d:a8:a3:dc:4f:d6:1d:0d:4a:3b:61:35:77:
                    46:48:5f:32:87:92:17:1b:3a:f6:ff:34:41:b8:31:
                    24:7f:5e:85:85:4d:88:44:53:37:ff:0f:86:a4:22:
                    ca:bd:1d:6f:d1:f4:f3:96:d0:7f:11:fb:51:cf:43:
                    d8:c6:6e:f4:66:34:ec:de:08:a6:05:c1:ee:47:d3:
                    81:87:1d:fd:fd:ff:3d:33:62:cf:63:5e:4e:c5:00:
                    97:1a:3e:b6:32:36:d5:ee:b3:b2:16:3e:e8:a4:27:
                    e2:b5:ca:2d:c3:0d:ba:43:b8:f7:9a:72:f8:65:a9:
                    0d:b5:f0:55:66:95:c4:11:38:58:a3:cd:df:7b:e8:
                    75:3c:aa:dc:dc:1b:d0:c2:33:2b:84:17:86:15:80:
                    08:ce:ea:5c:88:27:9c:00:05:f2:3a:e5:0c:7b:6a:
                    09:f7:de:f5:14:d8:5b:fa:80:a0:47:1e:1f:a5:73:
                    c5:89:07:b1:14:d7:66:09:dc:73:61:b5:3b:ee:62:
                    39:3a:1f:99:0c:6a:06:c4:87:f9:3d:d1:9a:04:61:
                    91:47:d6:44:56:c8:81:bd:c2:9e:93:3e:57:b8:5d:
                    2e:80:72:5b:d9:8f:eb:2b:64:32:65:70:bd:ee:e8:
                    9c:a9:ce:bf:c6:24:04:aa:5a:67:3e:b5:cf:0f:c6:
                    02:5a:d5:a8:fb:e2:3c:0c:12:6e:0c:5b:66:2d:9c:
                    13:6e:8a:66:c2:d7:d4:8e:2a:0e:c6:56:20:27:be:
                    98:dd:1f
                Exponent: 65537 (0x10001)
        X509v3 extensions:
            X509v3 Extended Key Usage: 
                TLS Web Client Authentication
            X509v3 CRL Distribution Points: 

                Full Name:
                  URI:http://www.example.com/example_ca.crl

    Signature Algorithm: sha256WithRSAEncryption
         cb:aa:81:41:4c:25:dc:b5:f7:1c:7e:5e:1c:44:36:71:07:94:
         98:99:44:f5:0d:87:47:2b:31:97:bb:2e:90:7b:de:df:19:22:
         a5:65:ea:0d:ef:aa:a8:bd:08:b9:86:e1:08:0a:ca:e0:f7:90:
         c0:56:b0:11:32:8a:3e:ac:ce:01:b5:2f:0f:48:34:72:95:5a:
         53:52:3b:23:83:60:52:e8:a8:02:45:24:79:fe:30:02:07:e0:
         a6:51:25:62:8b:ac:5c:ee:5c:a6:f9:3a:59:13:f1:4c:a0:1d:
         4d:5c:e3:76:9a:58:ac:e7:86:3d:6f:f9:73:91:5d:34:bb:00:
         3d:93:21:25:83:f7:b5:63:2e:8d:20:66:a8:c0:b2:c5:ae:eb:
         c6:07:56:16:4d:5e:1c:fd:d5:83:56:fb:a3:83:6d:9d:63:77:
         06:f7:f9:3f:f5:bc:47:70:b2:a9:8e:39:bb:c2:4f:1a:73:e7:
         1d:3f:19:6e:59:7a:f5:4f:5d:9e:34:ad:1d:4d:ac:44:a8:d1:
         b8:69:c2:11:95:bd:f7:bb:08:84:dd:f6:80:45:e1:9b:13:11:
         3b:c0:c2:00:1e:b1:64:20:e9:dc:11:7a:2e:8a:61:b1:11:32:
         96:5d:2d:c3:23:69:ae:24:48:08:5f:3d:eb:12:18:04:2e:48:
         1b:e2:b9:1c:24:93:bb:c5:15:7c:1e:09:34:d8:5a:da:d1:b1:
         b8:28:c5:1d:61:15:30:fd:e1:f2:f0:d9:22:ce:f0:85:ce:c6:
         49:73:57:04:da:10:29:2a:e2:0c:8a:52:85:ae:37:a1:cf:54:
         ba:cd:94:85:7f:3e:50:cf:b1:15:fc:68:46:9e:00:bb:22:99:
         de:8e:a4:21:9a:c0:7f:0e:d3:00:66:b1:a3:6d:b9:b3:db:99:
         df:a3:db:67:79:c1:40:a4:f6:46:d5:b1:8c:3b:6d:58:18:09:
         0e:e0:28:d2:de:ff:67:54:ac:3d:13:93:f8:ec:5b:ca:c5:0b:
         13:7d:36:f5:f6:95:0d:57:1f:30:c3:cf:b1:1e:b9:be:a9:b1:
         83:3c:90:c9:46:ff:c9:f2:df:7c:61:33:f3:21:70:4d:f9:6b:
         34:85:bb:66:64:8e:a9:77:bb:6c:3d:ce:19:7f:ad:af:4e:68:
         54:74:5f:5e:67:eb:89:50:fa:a5:34:b2:82:c9:c8:9f:99:8d:
         9f:7d:64:75:ff:cd:c3:d2:27:8e:2d:c4:77:91:6e:17:1e:ea:
         4f:96:53:cb:1d:e5:b7:91:79:57:0c:e5:ec:a1:db:13:c0:95:
         2f:a6:65:1b:06:7b:c2:5b:a3:08:41:df:62:03:2c:05:24:a3:
         5d:8d:ee:eb:17:bc:56:4b
-----BEGIN CERTIFICATE-----
MIIF5jCCA86gAwIBAgIBBzANBgkqhkiG9w0BAQsFADCBjzELMAkGA1UEBhMCVVMx
ETAPBgNVBAgMCENvbG9yYWRvMRQwEgYDVQQHDAtFbmdpbmVlcmluZzETMBEGA1UE
CgwKTWluaW9uIExhYjEfMB0GCSqGSIb3DQEJARYQYWRtaW5AbWluaW9uLmxhYjEh
MB8GA1UEAwwYTWluaW9uIExhYiBGcmVlUmFkaXVzIENBMB4XDTE5MDUwODE1MzMw
NFoXDTI5MDUwNTE1MzMwNFowgYsxCzAJBgNVBAYTAlVTMREwDwYDVQQIDAhDb2xv
cmFkbzETMBEGA1UECgwKTWluaW9uIExhYjEmMCQGA1UEAwwda3Jpcy5hcm1zdHJv
bmdANDA5Nm1pbmlvbi5sYWIxLDAqBgkqhkiG9w0BCQEWHWtyaXMuYXJtc3Ryb25n
QDQwOTZtaW5pb24ubGFiMIICIjANBgkqhkiG9w0BAQEFAAOCAg8AMIICCgKCAgEA
xQGbCKiEOutv1CjRwp+GwolAEd/lsNrlBeKxadA3M+uEOjQuchr1WhMdO/AQEHnr
yLvW5rxq5HN9Jg2ADC8d0gInLLIYTF2nw6CRVzuSvRd0d1zl+jytooiXJeEMICdL
uLLRzSvKw2ZYxU9qpgOhYB0E/t7rGphRPgTTKK91PcFrsnmdXwuBbfJyxfXskeVn
lLtsEHdfzL/QkhAfU+nmFtyx0d/ooV0ecmv5lGuQOvOEry0WvJFt1Pi82pGvVq4o
87uW/uTbr2CoK9glH91/PeA0uIG3nRgjgdD1Xa2Uv+78ET2oo9xP1h0NSjthNXdG
SF8yh5IXGzr2/zRBuDEkf16FhU2IRFM3/w+GpCLKvR1v0fTzltB/EftRz0PYxm70
ZjTs3gimBcHuR9OBhx39/f89M2LPY15OxQCXGj62MjbV7rOyFj7opCfitcotww26
Q7j3mnL4ZakNtfBVZpXEEThYo83fe+h1PKrc3BvQwjMrhBeGFYAIzupciCecAAXy
OuUMe2oJ9971FNhb+oCgRx4fpXPFiQexFNdmCdxzYbU77mI5Oh+ZDGoGxIf5PdGa
BGGRR9ZEVsiBvcKekz5XuF0ugHJb2Y/rK2QyZXC97uicqc6/xiQEqlpnPrXPD8YC
WtWo++I8DBJuDFtmLZwTbopmwtfUjioOxlYgJ76Y3R8CAwEAAaNPME0wEwYDVR0l
BAwwCgYIKwYBBQUHAwIwNgYDVR0fBC8wLTAroCmgJ4YlaHR0cDovL3d3dy5leGFt
cGxlLmNvbS9leGFtcGxlX2NhLmNybDANBgkqhkiG9w0BAQsFAAOCAgEAy6qBQUwl
3LX3HH5eHEQ2cQeUmJlE9Q2HRysxl7sukHve3xkipWXqDe+qqL0IuYbhCArK4PeQ
wFawETKKPqzOAbUvD0g0cpVaU1I7I4NgUuioAkUkef4wAgfgplElYousXO5cpvk6
WRPxTKAdTVzjdppYrOeGPW/5c5FdNLsAPZMhJYP3tWMujSBmqMCyxa7rxgdWFk1e
HP3Vg1b7o4NtnWN3Bvf5P/W8R3CyqY45u8JPGnPnHT8Zbll69U9dnjStHU2sRKjR
uGnCEZW997sIhN32gEXhmxMRO8DCAB6xZCDp3BF6LophsREyll0twyNpriRICF89
6xIYBC5IG+K5HCSTu8UVfB4JNNha2tGxuCjFHWEVMP3h8vDZIs7whc7GSXNXBNoQ
KSriDIpSha43oc9Uus2UhX8+UM+xFfxoRp4AuyKZ3o6kIZrAfw7TAGaxo225s9uZ
36PbZ3nBQKT2RtWxjDttWBgJDuAo0t7/Z1SsPROT+OxbysULE3029faVDVcfMMPP
sR65vqmxgzyQyUb/yfLffGEz8yFwTflrNIW7ZmSOqXe7bD3OGX+tr05oVHRfXmfr
iVD6pTSygsnIn5mNn31kdf/Nw9Inji3Ed5FuFx7qT5ZTyx3lt5F5Vwzl7KHbE8CV
L6ZlGwZ7wlujCEHfYgMsBSSjXY3u6xe8Vks=
-----END CERTIFICATE-----
