Certificate:
    Data:
        Version: 3 (0x2)
        Serial Number: 8 (0x8)
        Signature Algorithm: sha1WithRSAEncryption
        Issuer: C=US, ST=Colorado, L=Colorado Springs, O=LinkRunner Engineering/emailAddress=admin@linkrunner.org, CN=LinkRunner Engineering Certificate Authority
        Validity
            Not Before: Feb  8 16:53:48 2019 GMT
            Not After : Feb  5 16:53:48 2029 GMT
        Subject: C=US, ST=Colorado, O=LinkRunner Engineering, CN=user8192sha1@example.org/emailAddress=user8192sha1@example.org
        Subject Public Key Info:
            Public Key Algorithm: rsaEncryption
                RSA Public-Key: (8192 bit)
                Modulus:
                    00:e2:8a:51:37:3a:52:3a:5d:3f:eb:4e:22:ed:41:
                    ac:b1:66:67:35:11:e1:ee:b9:c0:61:c4:08:9e:13:
                    d6:ed:0a:87:76:ab:24:5e:b5:d9:52:11:ce:81:4d:
                    af:10:4f:a4:95:65:25:c6:2e:ed:d7:79:a6:4f:a4:
                    73:62:cf:cb:9f:e2:a4:2e:58:bb:f5:37:81:d8:16:
                    e5:76:44:ec:a9:54:fb:13:4b:43:c2:71:92:2f:18:
                    33:35:e9:0c:0a:48:f9:e1:02:dc:81:2f:73:3a:3b:
                    1f:fe:09:14:77:ab:1d:2b:96:41:75:d7:16:b4:0a:
                    17:d4:9e:c9:83:c2:eb:8e:b4:80:92:45:3e:10:f6:
                    a6:ab:6b:bb:c2:8b:30:f0:cd:a6:ed:45:2a:96:3a:
                    65:21:c3:ab:42:5e:8c:50:75:34:85:c0:6b:3f:e3:
                    e4:29:b5:8a:ff:87:77:10:f8:5a:1d:cf:23:c6:8b:
                    7e:ca:32:e5:f8:2e:d6:96:8b:5b:e2:ca:8a:4b:39:
                    de:dc:71:8e:95:9b:bc:08:6e:7a:42:72:76:3d:12:
                    07:d2:8a:20:43:d0:24:87:62:7e:6d:d3:48:e8:3b:
                    7a:47:e1:26:c8:c2:15:cc:14:58:91:b7:f0:5a:f7:
                    3a:7d:cd:25:92:0a:b3:f8:f7:7c:5e:bb:bc:6d:72:
                    a2:27:de:a9:74:9d:e2:6d:60:93:2e:20:e2:ac:1d:
                    22:0a:ed:34:8e:18:ac:fa:3f:6b:4a:2b:35:f1:ca:
                    16:10:4a:2e:19:21:da:a4:3e:ac:29:23:3b:bc:fa:
                    09:85:ba:87:bc:53:5e:e2:06:f9:7e:b8:71:68:9c:
                    dd:16:15:92:19:dd:f0:bf:f1:4b:e6:0c:31:54:4b:
                    99:96:8c:61:10:31:f9:82:ac:14:df:49:13:e6:7a:
                    d5:d7:02:52:cd:19:12:de:1c:5a:e3:29:54:1f:41:
                    d6:d5:f6:7f:b8:79:b0:b7:3d:99:e7:e9:c5:88:60:
                    55:24:51:9d:94:cc:6e:4d:f9:d8:69:d8:7e:a8:54:
                    ad:fe:99:f3:d0:7c:9d:3c:d6:12:7b:55:98:bb:1f:
                    49:e4:a8:f9:82:69:f4:f4:f3:ae:64:ab:27:c5:52:
                    66:4d:0a:7a:0d:f6:ab:ee:25:03:33:66:25:38:1f:
                    ba:0e:a0:84:94:9f:f7:78:5a:09:b0:5b:2c:e6:4a:
                    97:a9:4b:bd:00:01:26:11:e9:12:c6:7b:dc:a3:e5:
                    97:92:2c:e5:3d:2d:ad:14:2b:a6:e8:e2:2d:4c:83:
                    0e:ed:3f:cd:bb:9a:02:88:ee:66:06:9e:ae:7c:c4:
                    9e:84:4e:4c:0a:32:78:d8:2f:40:ec:18:46:ee:86:
                    78:f6:c0:c9:cf:c0:6a:60:02:ec:1b:69:a7:ea:90:
                    c7:d1:aa:e5:19:fc:bb:f7:57:78:fb:ed:ee:8a:30:
                    2d:e6:d9:8e:39:31:a2:b5:9d:28:0e:40:19:0b:21:
                    ac:f8:b4:16:5b:25:64:b4:68:25:25:4e:56:98:7b:
                    36:e8:1c:70:26:70:c3:4f:9d:eb:42:7d:0a:a5:58:
                    21:56:fb:95:7c:74:62:29:13:ff:0a:ce:46:c4:48:
                    b2:79:d0:16:0a:f7:44:98:f6:e5:7a:d5:f3:fa:1a:
                    dd:9f:3f:d3:1a:b9:ef:ad:56:8e:89:b1:30:ac:cb:
                    e7:1a:81:ba:f7:a1:e5:5c:dd:b3:7c:83:23:f2:3b:
                    ad:16:0a:4b:4e:ca:f0:d5:ec:52:19:32:dc:81:c9:
                    64:35:9f:21:34:4b:39:81:92:c2:5b:94:6a:e4:04:
                    e0:c8:d5:40:b9:1a:c3:d7:46:62:c3:f5:f6:91:34:
                    e7:ad:69:45:4c:91:02:7b:19:8d:c1:84:05:33:53:
                    6a:ce:7c:98:c5:3e:0b:e5:93:b3:79:08:96:bc:05:
                    55:17:6e:09:15:72:21:9b:37:9a:94:f3:c4:ec:de:
                    a6:a9:24:67:75:c8:9c:08:6c:66:9f:30:30:53:d5:
                    95:e8:05:28:60:5c:d1:a3:50:0e:17:73:33:5d:a0:
                    37:b1:77:5b:8d:97:dc:d2:d4:3d:64:12:a0:ec:9a:
                    8e:8e:87:a8:46:c0:7e:e3:36:87:75:8a:5a:bd:fd:
                    64:a3:57:bd:d8:b2:88:04:2d:d3:87:07:f9:a4:6f:
                    d5:7e:93:23:aa:41:9e:f7:20:3b:4b:34:26:08:f2:
                    aa:09:8d:ff:c7:0a:57:84:e1:4b:11:ce:d2:2d:83:
                    d1:44:d5:7b:7f:f5:34:ea:14:b6:9e:96:66:2a:27:
                    46:32:3c:94:fb:74:0a:fc:dd:cc:42:0b:7c:9d:86:
                    6c:c1:84:56:01:36:20:94:e0:11:ae:af:84:15:ec:
                    c2:c4:0f:9a:58:43:b1:fa:66:fb:83:3c:f3:16:d4:
                    75:f6:61:50:14:8d:94:16:40:fc:44:f7:a3:98:d0:
                    00:07:6e:94:b2:cb:cf:f7:54:89:e5:08:50:ce:f1:
                    10:8a:91:38:7b:b8:23:23:5e:dd:cc:67:a5:16:21:
                    1a:dc:f8:d3:6c:14:1a:a9:7c:9e:e7:f6:3e:96:d7:
                    f5:99:70:76:94:ab:2c:4d:e8:27:83:b4:89:fb:04:
                    bf:21:5e:80:2e:5e:37:95:2f:c9:f8:d1:4c:2b:b2:
                    a9:6f:51:1c:74:6f:6f:c1:e1:92:d9:47:a6:4f:15:
                    03:7a:3d:5c:f4:fb:b7:b9:1c:7d:6d:60:91:bc:65:
                    81:bb:a8:4b:a7
                Exponent: 65537 (0x10001)
        X509v3 extensions:
            X509v3 Extended Key Usage: 
                TLS Web Client Authentication
            X509v3 CRL Distribution Points: 

                Full Name:
                  URI:http://www.example.com/example_ca.crl

    Signature Algorithm: sha1WithRSAEncryption
         57:51:d4:cd:76:29:0b:51:d7:d7:9b:38:be:2f:04:f0:f6:ca:
         8a:86:71:9b:84:6a:ae:b6:8d:5d:ef:c0:d7:70:74:2a:8b:cf:
         61:af:67:f7:a1:47:c5:b8:39:0f:d7:79:ea:d0:5e:0c:dd:fa:
         5a:b2:29:84:02:f2:4f:61:d2:e6:dd:51:bf:0e:c9:e9:c6:7f:
         5b:13:b5:f0:df:30:0e:75:2a:73:0a:6f:b3:6e:8b:3a:ec:f6:
         80:c8:49:86:fa:d5:23:7b:eb:0a:9d:38:a5:91:98:43:c4:ea:
         12:18:d9:12:96:04:7f:ed:4c:c1:99:32:d1:24:cb:e6:fd:04:
         20:0d:d2:b2:df:2f:63:8a:7d:a6:5d:2e:5e:da:74:d3:c9:1c:
         ea:cd:d3:28:ef:b0:9d:e0:9d:51:c7:03:25:63:f1:49:1a:03:
         da:9d:01:47:2d:58:ca:e5:58:a6:63:6c:b8:4f:c1:03:9e:98:
         11:de:db:64:7b:62:9e:29:c4:94:83:31:5e:2c:6c:8d:8e:64:
         6e:96:3d:97:c1:32:6e:80:6f:81:c4:2d:a3:45:fc:17:1c:c7:
         07:c3:2c:96:2d:2a:c5:02:96:44:3d:42:66:b4:c0:25:8d:c2:
         ac:fa:3f:0f:36:63:58:86:43:a6:49:a3:98:4b:2b:c7:0b:d6:
         a3:1a:3c:08:39:53:0c:ea:17:e0:fb:42:b8:65:94:8b:c3:c1:
         1d:8e:39:dc:71:d7:44:13:ff:77:fa:57:da:2d:00:39:91:99:
         ad:76:9a:67:b9:04:97:a9:3d:d0:8c:ed:10:da:1d:0e:90:11:
         99:0e:65:69:18:0d:6c:23:b7:7f:8f:a0:d1:79:78:46:eb:ef:
         73:3a:9b:88:27:df:0e:0b:ce:33:cb:34:2d:b7:94:51:ab:d4:
         95:b2:e9:50:44:6c:0b:83:fd:d0:20:a8:74:6d:2d:15:65:41:
         7d:ac:fb:0d:5c:f3:e0:03:40:e9:75:7e:23:3a:b9:12:66:09:
         d5:ce:8b:2b:a7:77:24:0e:46:81:f0:75:65:44:bc:8d:41:5d:
         28:1f:b4:9c:4d:62:0f:55:b7:ea:52:a8:59:79:18:e3:db:17:
         59:a0:e0:e4:cb:31:f3:39:3d:d0:e6:ee:bb:4a:ab:43:5e:ee:
         35:dd:be:e5:c1:b5:71:38:d4:ea:c7:99:c8:67:d8:78:13:03:
         45:b5:c0:d6:cb:76:4f:c2:b3:4d:e3:ac:1e:df:b8:d9:91:ef:
         b4:f7:a6:46:99:1e:a8:e9:ef:a6:ea:27:4d:f2:ed:1c:d4:49:
         2b:ef:b0:60:06:85:c1:8f:dd:41:6d:87:59:3d:26:56:63:3e:
         98:cb:9c:fd:d3:b6:5b:4c
-----BEGIN CERTIFICATE-----
MIIIETCCBfmgAwIBAgIBCDANBgkqhkiG9w0BAQUFADCBuDELMAkGA1UEBhMCVVMx
ETAPBgNVBAgMCENvbG9yYWRvMRkwFwYDVQQHDBBDb2xvcmFkbyBTcHJpbmdzMR8w
HQYDVQQKDBZMaW5rUnVubmVyIEVuZ2luZWVyaW5nMSMwIQYJKoZIhvcNAQkBFhRh
ZG1pbkBsaW5rcnVubmVyLm9yZzE1MDMGA1UEAwwsTGlua1J1bm5lciBFbmdpbmVl
cmluZyBDZXJ0aWZpY2F0ZSBBdXRob3JpdHkwHhcNMTkwMjA4MTY1MzQ4WhcNMjkw
MjA1MTY1MzQ4WjCBjTELMAkGA1UEBhMCVVMxETAPBgNVBAgMCENvbG9yYWRvMR8w
HQYDVQQKDBZMaW5rUnVubmVyIEVuZ2luZWVyaW5nMSEwHwYDVQQDDBh1c2VyODE5
MnNoYTFAZXhhbXBsZS5vcmcxJzAlBgkqhkiG9w0BCQEWGHVzZXI4MTkyc2hhMUBl
eGFtcGxlLm9yZzCCBCIwDQYJKoZIhvcNAQEBBQADggQPADCCBAoCggQBAOKKUTc6
UjpdP+tOIu1BrLFmZzUR4e65wGHECJ4T1u0Kh3arJF612VIRzoFNrxBPpJVlJcYu
7dd5pk+kc2LPy5/ipC5Yu/U3gdgW5XZE7KlU+xNLQ8Jxki8YMzXpDApI+eEC3IEv
czo7H/4JFHerHSuWQXXXFrQKF9SeyYPC6460gJJFPhD2pqtru8KLMPDNpu1FKpY6
ZSHDq0JejFB1NIXAaz/j5Cm1iv+HdxD4Wh3PI8aLfsoy5fgu1paLW+LKiks53txx
jpWbvAhuekJydj0SB9KKIEPQJIdifm3TSOg7ekfhJsjCFcwUWJG38Fr3On3NJZIK
s/j3fF67vG1yoifeqXSd4m1gky4g4qwdIgrtNI4YrPo/a0orNfHKFhBKLhkh2qQ+
rCkjO7z6CYW6h7xTXuIG+X64cWic3RYVkhnd8L/xS+YMMVRLmZaMYRAx+YKsFN9J
E+Z61dcCUs0ZEt4cWuMpVB9B1tX2f7h5sLc9mefpxYhgVSRRnZTMbk352GnYfqhU
rf6Z89B8nTzWEntVmLsfSeSo+YJp9PTzrmSrJ8VSZk0Keg32q+4lAzNmJTgfug6g
hJSf93haCbBbLOZKl6lLvQABJhHpEsZ73KPll5Is5T0trRQrpujiLUyDDu0/zbua
AojuZgaernzEnoROTAoyeNgvQOwYRu6GePbAyc/AamAC7Btpp+qQx9Gq5Rn8u/dX
ePvt7oowLebZjjkxorWdKA5AGQshrPi0FlslZLRoJSVOVph7NugccCZww0+d60J9
CqVYIVb7lXx0YikT/wrORsRIsnnQFgr3RJj25XrV8/oa3Z8/0xq5761WjomxMKzL
5xqBuveh5Vzds3yDI/I7rRYKS07K8NXsUhky3IHJZDWfITRLOYGSwluUauQE4MjV
QLkaw9dGYsP19pE0561pRUyRAnsZjcGEBTNTas58mMU+C+WTs3kIlrwFVRduCRVy
IZs3mpTzxOzepqkkZ3XInAhsZp8wMFPVlegFKGBc0aNQDhdzM12gN7F3W42X3NLU
PWQSoOyajo6HqEbAfuM2h3WKWr39ZKNXvdiyiAQt04cH+aRv1X6TI6pBnvcgO0s0
JgjyqgmN/8cKV4ThSxHO0i2D0UTVe3/1NOoUtp6WZionRjI8lPt0CvzdzEILfJ2G
bMGEVgE2IJTgEa6vhBXswsQPmlhDsfpm+4M88xbUdfZhUBSNlBZA/ET3o5jQAAdu
lLLLz/dUieUIUM7xEIqROHu4IyNe3cxnpRYhGtz402wUGql8nuf2PpbX9ZlwdpSr
LE3oJ4O0ifsEvyFegC5eN5UvyfjRTCuyqW9RHHRvb8HhktlHpk8VA3o9XPT7t7kc
fW1gkbxlgbuoS6cCAwEAAaNPME0wEwYDVR0lBAwwCgYIKwYBBQUHAwIwNgYDVR0f
BC8wLTAroCmgJ4YlaHR0cDovL3d3dy5leGFtcGxlLmNvbS9leGFtcGxlX2NhLmNy
bDANBgkqhkiG9w0BAQUFAAOCAgEAV1HUzXYpC1HX15s4vi8E8PbKioZxm4RqrraN
Xe/A13B0KovPYa9n96FHxbg5D9d56tBeDN36WrIphALyT2HS5t1Rvw7J6cZ/WxO1
8N8wDnUqcwpvs26LOuz2gMhJhvrVI3vrCp04pZGYQ8TqEhjZEpYEf+1MwZky0STL
5v0EIA3Sst8vY4p9pl0uXtp008kc6s3TKO+wneCdUccDJWPxSRoD2p0BRy1YyuVY
pmNsuE/BA56YEd7bZHtininElIMxXixsjY5kbpY9l8EyboBvgcQto0X8FxzHB8Ms
li0qxQKWRD1CZrTAJY3CrPo/DzZjWIZDpkmjmEsrxwvWoxo8CDlTDOoX4PtCuGWU
i8PBHY453HHXRBP/d/pX2i0AOZGZrXaaZ7kEl6k90IztENodDpARmQ5laRgNbCO3
f4+g0Xl4RuvvczqbiCffDgvOM8s0LbeUUavUlbLpUERsC4P90CCodG0tFWVBfaz7
DVzz4ANA6XV+Izq5EmYJ1c6LK6d3JA5GgfB1ZUS8jUFdKB+0nE1iD1W36lKoWXkY
49sXWaDg5Msx8zk90Obuu0qrQ17uNd2+5cG1cTjU6seZyGfYeBMDRbXA1st2T8Kz
TeOsHt+42ZHvtPemRpkeqOnvpuonTfLtHNRJK++wYAaFwY/dQW2HWT0mVmM+mMuc
/dO2W0w=
-----END CERTIFICATE-----
