Certificate:
    Data:
        Version: 3 (0x2)
        Serial Number: 9 (0x9)
        Signature Algorithm: sha1WithRSAEncryption
        Issuer: C=US, ST=Colorado, L=Colorado Springs, O=LinkRunner Engineering/emailAddress=admin@linkrunner.org, CN=LinkRunner Engineering Certificate Authority
        Validity
            Not Before: Feb  8 16:54:45 2019 GMT
            Not After : Feb  5 16:54:45 2029 GMT
        Subject: C=US, ST=Colorado, O=LinkRunner Engineering, CN=user4096sha1@example.org/emailAddress=user4096sha1@example.org
        Subject Public Key Info:
            Public Key Algorithm: rsaEncryption
                RSA Public-Key: (4096 bit)
                Modulus:
                    00:ae:0e:62:cb:b0:4b:3f:92:26:1b:f7:4a:da:99:
                    74:a6:5a:11:ed:36:63:f1:05:01:55:01:00:03:53:
                    77:05:b4:0b:5b:0c:20:0b:2b:03:14:b9:fd:98:46:
                    cb:0c:81:43:24:ed:98:da:cc:36:9c:04:98:3e:41:
                    b0:f9:54:8a:75:4c:bf:7a:2d:ff:07:16:bf:5b:a9:
                    bd:0d:0d:7e:eb:5f:e1:bf:4c:ad:02:56:c3:9f:8d:
                    2b:b9:1a:46:cd:4f:b0:9b:88:be:77:4d:5e:c3:fc:
                    59:1a:9f:ab:bb:b0:36:13:f5:1d:52:5f:c5:5f:ea:
                    02:61:a8:29:35:fe:3b:e9:6b:d3:f1:ba:6e:15:58:
                    29:d8:6b:82:e7:c8:75:cd:28:a1:d3:b5:4e:b9:80:
                    ba:a4:9e:8f:76:19:9c:d9:8b:e8:09:26:ef:25:8b:
                    52:79:b3:78:e6:3a:30:2b:67:48:63:dc:29:07:d2:
                    57:dd:33:de:fe:71:fe:19:8b:c0:d8:76:16:35:63:
                    b1:4c:c0:9b:27:f3:ef:5a:e1:0f:89:66:32:92:1d:
                    90:fe:5f:73:f6:fe:8d:c2:68:c8:c6:8d:18:d2:eb:
                    5f:74:a5:e4:21:80:2c:48:92:dc:20:59:71:b6:68:
                    67:f9:21:ae:6d:d2:a1:3a:04:52:a9:45:74:d7:c7:
                    76:d6:f9:2b:e0:32:6b:17:16:74:23:2d:1e:89:dc:
                    71:b9:dc:d1:aa:b8:e3:41:0c:63:39:8a:79:c0:44:
                    ae:31:86:76:cd:16:84:a8:56:fe:bf:2f:e6:04:09:
                    b2:74:e4:67:6b:c8:1f:6d:c8:46:e2:ef:20:05:33:
                    04:be:71:7b:bb:3d:52:a9:2f:eb:53:7d:0b:60:c4:
                    56:12:2f:ed:87:0d:c7:f1:6a:4e:cb:2e:e7:bf:64:
                    2e:4f:70:f4:16:e6:52:71:43:e9:84:84:03:25:96:
                    15:25:81:9a:d1:22:7c:1a:5a:aa:63:e0:0e:19:12:
                    26:6d:df:8f:46:64:c2:65:41:76:5a:5e:4f:e0:59:
                    90:4c:4f:ed:89:37:58:49:1d:97:3c:bd:02:76:c9:
                    bd:91:b0:35:2d:a2:8e:0a:ae:3d:10:71:d0:ef:98:
                    2b:d6:8f:5a:11:55:03:9d:3f:e2:4e:18:21:33:c1:
                    be:ff:fd:a8:6b:9b:85:9c:70:41:fd:62:5b:af:10:
                    b5:30:f7:7b:69:f7:e5:9c:9f:94:0d:f9:98:95:65:
                    29:df:a2:65:65:34:3c:15:d2:a8:95:7e:a6:98:63:
                    8b:6f:fc:55:c8:15:ba:13:a0:f5:d5:11:c6:41:ff:
                    43:03:13:b1:a6:7c:a7:2b:16:a1:3d:5e:df:f4:24:
                    60:52:53
                Exponent: 65537 (0x10001)
        X509v3 extensions:
            X509v3 Extended Key Usage: 
                TLS Web Client Authentication
            X509v3 CRL Distribution Points: 

                Full Name:
                  URI:http://www.example.com/example_ca.crl

    Signature Algorithm: sha1WithRSAEncryption
         bd:b7:03:0d:dd:a4:fa:44:14:59:fa:5e:0d:5a:4c:aa:27:a8:
         5d:fe:3f:a3:5c:83:22:33:37:32:1d:5d:6c:3d:a6:58:d4:e5:
         27:fe:11:8d:72:98:da:9d:f5:75:85:a7:1e:00:b6:41:f6:6d:
         01:e4:ad:78:23:63:2b:3c:54:f5:62:87:0f:8c:2e:f8:c4:f6:
         22:cd:d2:11:b3:49:eb:f0:37:80:f1:ed:3b:f0:f5:d7:24:15:
         3e:32:77:85:c9:9f:ec:f5:cd:57:88:78:3e:7d:89:35:26:82:
         42:8e:fc:7f:e6:67:23:de:6d:3d:d6:7e:6f:d7:ab:90:e8:9d:
         43:4b:a1:33:84:4d:3b:44:57:f1:9b:03:59:70:7e:5f:d3:39:
         7e:2e:f6:fd:99:58:7e:e3:c8:91:59:87:16:da:d5:f2:83:ba:
         24:d4:71:77:99:2f:72:34:54:51:f2:40:09:ee:35:ae:f3:fa:
         be:8f:64:62:b6:b7:2b:b3:b9:3d:dd:1a:9f:0a:34:4c:d5:9b:
         2b:3a:8f:21:3b:fa:b9:fe:5e:34:f6:7b:7c:07:4f:ee:22:f1:
         84:5c:ec:78:11:a9:6a:78:c3:36:ea:e5:69:06:6f:54:f9:99:
         ec:31:52:34:62:8b:c1:76:2e:87:f4:19:75:10:74:71:b9:11:
         32:04:8f:07:d1:b5:2a:a4:db:d5:55:a8:17:01:9f:ec:98:9b:
         45:c0:32:25:a2:dc:e4:61:58:f8:98:83:e6:35:38:06:dc:ef:
         6d:22:3e:47:d6:ea:d6:53:bd:73:dd:58:7d:bf:cb:d2:e3:01:
         db:c0:80:c4:0a:9e:72:13:ee:3e:08:0e:7a:1a:95:97:9f:83:
         11:a6:b2:dd:49:63:cb:44:90:1f:05:cb:da:43:33:d9:32:c2:
         a5:cb:b4:12:12:fb:41:dc:c3:af:ec:48:96:f6:ef:e1:5c:c9:
         90:0d:5e:b9:91:d2:90:f8:67:60:c6:1d:b5:40:36:24:ef:8d:
         4e:d2:97:bb:73:1b:38:3c:f9:fe:af:fd:01:55:4c:f2:74:5e:
         27:0d:33:43:39:7e:31:b0:46:7b:a1:c9:fa:32:d4:7b:a6:41:
         a8:6f:59:09:d6:ca:cd:72:71:38:f8:28:16:30:54:cb:f7:8b:
         39:9a:94:cc:90:58:5e:54:32:e4:aa:4e:46:22:df:ef:46:4f:
         73:a2:67:b5:5d:ed:f1:3e:03:a8:80:1d:40:bd:9a:21:d5:0f:
         d0:14:68:08:4e:5d:a3:8a:05:04:5c:d1:f5:80:ce:4c:49:c3:
         3b:10:ed:69:78:bd:c4:ce:57:cb:23:8c:c7:99:a8:1c:ba:80:
         4a:2a:fa:a7:a9:bd:78:96
-----BEGIN CERTIFICATE-----
MIIGETCCA/mgAwIBAgIBCTANBgkqhkiG9w0BAQUFADCBuDELMAkGA1UEBhMCVVMx
ETAPBgNVBAgMCENvbG9yYWRvMRkwFwYDVQQHDBBDb2xvcmFkbyBTcHJpbmdzMR8w
HQYDVQQKDBZMaW5rUnVubmVyIEVuZ2luZWVyaW5nMSMwIQYJKoZIhvcNAQkBFhRh
ZG1pbkBsaW5rcnVubmVyLm9yZzE1MDMGA1UEAwwsTGlua1J1bm5lciBFbmdpbmVl
cmluZyBDZXJ0aWZpY2F0ZSBBdXRob3JpdHkwHhcNMTkwMjA4MTY1NDQ1WhcNMjkw
MjA1MTY1NDQ1WjCBjTELMAkGA1UEBhMCVVMxETAPBgNVBAgMCENvbG9yYWRvMR8w
HQYDVQQKDBZMaW5rUnVubmVyIEVuZ2luZWVyaW5nMSEwHwYDVQQDDBh1c2VyNDA5
NnNoYTFAZXhhbXBsZS5vcmcxJzAlBgkqhkiG9w0BCQEWGHVzZXI0MDk2c2hhMUBl
eGFtcGxlLm9yZzCCAiIwDQYJKoZIhvcNAQEBBQADggIPADCCAgoCggIBAK4OYsuw
Sz+SJhv3StqZdKZaEe02Y/EFAVUBAANTdwW0C1sMIAsrAxS5/ZhGywyBQyTtmNrM
NpwEmD5BsPlUinVMv3ot/wcWv1upvQ0Nfutf4b9MrQJWw5+NK7kaRs1PsJuIvndN
XsP8WRqfq7uwNhP1HVJfxV/qAmGoKTX+O+lr0/G6bhVYKdhrgufIdc0oodO1TrmA
uqSej3YZnNmL6Akm7yWLUnmzeOY6MCtnSGPcKQfSV90z3v5x/hmLwNh2FjVjsUzA
myfz71rhD4lmMpIdkP5fc/b+jcJoyMaNGNLrX3Sl5CGALEiS3CBZcbZoZ/khrm3S
oToEUqlFdNfHdtb5K+AyaxcWdCMtHonccbnc0aq440EMYzmKecBErjGGds0WhKhW
/r8v5gQJsnTkZ2vIH23IRuLvIAUzBL5xe7s9Uqkv61N9C2DEVhIv7YcNx/FqTssu
579kLk9w9BbmUnFD6YSEAyWWFSWBmtEifBpaqmPgDhkSJm3fj0ZkwmVBdlpeT+BZ
kExP7Yk3WEkdlzy9AnbJvZGwNS2ijgquPRBx0O+YK9aPWhFVA50/4k4YITPBvv/9
qGubhZxwQf1iW68QtTD3e2n35ZyflA35mJVlKd+iZWU0PBXSqJV+pphji2/8VcgV
uhOg9dURxkH/QwMTsaZ8pysWoT1e3/QkYFJTAgMBAAGjTzBNMBMGA1UdJQQMMAoG
CCsGAQUFBwMCMDYGA1UdHwQvMC0wK6ApoCeGJWh0dHA6Ly93d3cuZXhhbXBsZS5j
b20vZXhhbXBsZV9jYS5jcmwwDQYJKoZIhvcNAQEFBQADggIBAL23Aw3dpPpEFFn6
Xg1aTKonqF3+P6NcgyIzNzIdXWw9pljU5Sf+EY1ymNqd9XWFpx4AtkH2bQHkrXgj
Yys8VPVihw+MLvjE9iLN0hGzSevwN4Dx7Tvw9dckFT4yd4XJn+z1zVeIeD59iTUm
gkKO/H/mZyPebT3Wfm/Xq5DonUNLoTOETTtEV/GbA1lwfl/TOX4u9v2ZWH7jyJFZ
hxba1fKDuiTUcXeZL3I0VFHyQAnuNa7z+r6PZGK2tyuzuT3dGp8KNEzVmys6jyE7
+rn+XjT2e3wHT+4i8YRc7HgRqWp4wzbq5WkGb1T5mewxUjRii8F2Lof0GXUQdHG5
ETIEjwfRtSqk29VVqBcBn+yYm0XAMiWi3ORhWPiYg+Y1OAbc720iPkfW6tZTvXPd
WH2/y9LjAdvAgMQKnnIT7j4IDnoalZefgxGmst1JY8tEkB8Fy9pDM9kywqXLtBIS
+0Hcw6/sSJb27+FcyZANXrmR0pD4Z2DGHbVANiTvjU7Sl7tzGzg8+f6v/QFVTPJ0
XicNM0M5fjGwRnuhyfoy1HumQahvWQnWys1ycTj4KBYwVMv3izmalMyQWF5UMuSq
TkYi3+9GT3OiZ7Vd7fE+A6iAHUC9miHVD9AUaAhOXaOKBQRc0fWAzkxJwzsQ7Wl4
vcTOV8sjjMeZqBy6gEoq+qepvXiW
-----END CERTIFICATE-----
