Certificate:
    Data:
        Version: 3 (0x2)
        Serial Number: 10 (0xa)
        Signature Algorithm: sha1WithRSAEncryption
        Issuer: C=US, ST=Colorado, L=Colorado Springs, O=LinkRunner Engineering/emailAddress=admin@linkrunner.org, CN=LinkRunner Engineering Certificate Authority
        Validity
            Not Before: Feb  8 16:56:29 2019 GMT
            Not After : Feb  5 16:56:29 2029 GMT
        Subject: C=US, ST=Colorado, O=LinkRunner Engineering, CN=user2048sha1@example.org/emailAddress=user2048sha1@example.org
        Subject Public Key Info:
            Public Key Algorithm: rsaEncryption
                RSA Public-Key: (2048 bit)
                Modulus:
                    00:f3:3d:43:5b:81:37:04:dc:52:4c:d9:22:c5:75:
                    8e:35:8b:ad:47:81:04:cd:a4:1f:b0:23:99:d2:99:
                    0e:e2:42:f3:e0:ce:de:84:e0:79:c8:96:d0:9f:df:
                    69:13:7c:a6:a0:ea:bd:ee:bd:ea:36:63:4a:c0:3f:
                    62:0b:cc:a1:fe:79:c9:c0:09:77:81:0f:77:bb:8e:
                    b4:81:2c:a5:38:36:2e:61:9c:80:9a:88:eb:58:49:
                    78:12:d6:18:14:32:65:0c:59:b1:5d:c7:f3:69:24:
                    a5:13:10:5b:c4:28:bb:e9:bd:04:90:ee:fc:25:8b:
                    00:d5:8f:4b:d2:a8:58:15:ac:05:e2:83:6e:18:23:
                    f6:e3:c3:36:4b:aa:96:e4:1d:0a:71:a2:77:94:54:
                    e8:03:2d:16:44:52:87:93:85:41:9c:65:1b:51:42:
                    48:e3:e0:74:a8:7e:22:83:b3:75:b4:3e:bb:8d:d9:
                    68:7f:83:57:41:0b:bb:2f:82:7d:af:02:0e:04:a5:
                    ba:ca:f5:33:45:39:7e:87:04:8e:50:a3:b3:74:eb:
                    ae:54:87:62:3d:b6:63:08:11:a6:ed:d4:54:cc:ce:
                    73:0f:d4:8f:c9:ff:33:d3:60:d7:45:f3:54:69:c6:
                    43:ef:26:4a:2d:3c:3d:cf:39:21:44:40:40:2a:9b:
                    86:b5
                Exponent: 65537 (0x10001)
        X509v3 extensions:
            X509v3 Extended Key Usage: 
                TLS Web Client Authentication
            X509v3 CRL Distribution Points: 

                Full Name:
                  URI:http://www.example.com/example_ca.crl

    Signature Algorithm: sha1WithRSAEncryption
         ac:4c:36:2b:56:a7:91:de:f8:31:b4:9a:18:67:17:fb:00:61:
         20:66:18:be:0e:ef:3b:d9:34:11:3c:af:1c:f0:78:80:e4:c6:
         99:df:97:40:05:2b:fa:96:06:f4:72:cd:9e:62:54:68:52:2a:
         2c:d0:25:f6:31:ee:0f:6c:eb:4a:cb:1e:03:08:a8:12:3e:51:
         9f:6f:28:f0:7a:bc:28:03:2d:bf:c1:9b:92:fd:af:26:f5:0b:
         3f:63:f4:87:00:c8:49:67:c7:64:87:1f:69:b9:65:31:d8:35:
         d0:6f:55:8d:a2:69:cd:a2:ec:7f:ce:62:e2:f8:f2:5c:df:54:
         b2:2d:85:fa:11:d5:90:5b:49:e1:b4:aa:61:bd:ce:89:68:34:
         5a:37:79:12:e6:af:8a:c5:8b:54:9b:f0:46:d4:97:77:59:67:
         1d:4e:8d:c9:0b:fe:14:90:ad:9f:61:52:25:8e:d0:a1:f0:84:
         89:a7:b7:16:2d:05:9f:1b:21:f2:42:43:f8:c1:de:25:ac:5d:
         f5:f0:21:04:6d:e8:88:29:db:d8:27:24:1a:f5:16:db:1a:1a:
         64:3e:be:ca:0f:4e:36:7e:1c:95:e5:8f:4d:4c:19:80:1f:58:
         0a:96:c4:f4:26:a5:32:cc:40:f5:56:f5:d4:b3:7b:b8:e0:5d:
         e3:1b:2b:15:3b:58:16:67:65:39:7f:c4:df:6a:0e:9b:c1:47:
         3c:64:9a:47:0f:94:13:cd:3d:ac:7a:f6:e4:65:a4:1b:68:f4:
         82:34:c2:12:57:b2:c6:81:da:09:f1:63:63:b1:b3:d2:3a:38:
         99:9c:d2:ea:18:df:1f:b2:dd:d4:68:17:0e:18:dc:0f:18:1a:
         03:83:a0:f6:1d:16:00:97:71:1e:33:5f:27:5c:5b:e0:7b:e6:
         7c:17:8b:88:fb:87:e6:1c:f8:c3:ab:f7:c3:f0:91:8f:f7:10:
         23:31:d7:09:fb:94:94:8c:18:c1:7e:e3:8e:1f:c1:5c:17:34:
         0f:c6:58:3a:29:d2:17:6f:41:b8:94:ca:4f:da:b1:bb:96:20:
         66:ca:4c:24:77:5d:f8:14:d9:68:51:55:14:64:37:de:0a:3f:
         ec:20:2d:c1:fc:4b:5b:6a:cf:ce:15:a0:8e:b9:73:91:1c:ff:
         42:18:57:51:09:5d:d0:67:55:c9:88:82:3f:ac:b8:95:93:c3:
         0d:5a:93:09:fe:e9:44:6a:ab:ff:97:0f:a3:9e:5c:63:59:d1:
         75:93:1a:f6:82:7c:a4:50:72:0e:a9:bb:4f:e3:e0:81:fe:29:
         8f:dc:27:6c:b3:a8:11:15:2b:5d:4b:bc:ca:03:f2:f2:29:5c:
         1d:be:7a:82:bd:9a:09:d9
-----BEGIN CERTIFICATE-----
MIIFETCCAvmgAwIBAgIBCjANBgkqhkiG9w0BAQUFADCBuDELMAkGA1UEBhMCVVMx
ETAPBgNVBAgMCENvbG9yYWRvMRkwFwYDVQQHDBBDb2xvcmFkbyBTcHJpbmdzMR8w
HQYDVQQKDBZMaW5rUnVubmVyIEVuZ2luZWVyaW5nMSMwIQYJKoZIhvcNAQkBFhRh
ZG1pbkBsaW5rcnVubmVyLm9yZzE1MDMGA1UEAwwsTGlua1J1bm5lciBFbmdpbmVl
cmluZyBDZXJ0aWZpY2F0ZSBBdXRob3JpdHkwHhcNMTkwMjA4MTY1NjI5WhcNMjkw
MjA1MTY1NjI5WjCBjTELMAkGA1UEBhMCVVMxETAPBgNVBAgMCENvbG9yYWRvMR8w
HQYDVQQKDBZMaW5rUnVubmVyIEVuZ2luZWVyaW5nMSEwHwYDVQQDDBh1c2VyMjA0
OHNoYTFAZXhhbXBsZS5vcmcxJzAlBgkqhkiG9w0BCQEWGHVzZXIyMDQ4c2hhMUBl
eGFtcGxlLm9yZzCCASIwDQYJKoZIhvcNAQEBBQADggEPADCCAQoCggEBAPM9Q1uB
NwTcUkzZIsV1jjWLrUeBBM2kH7AjmdKZDuJC8+DO3oTgeciW0J/faRN8pqDqve69
6jZjSsA/YgvMof55ycAJd4EPd7uOtIEspTg2LmGcgJqI61hJeBLWGBQyZQxZsV3H
82kkpRMQW8Qou+m9BJDu/CWLANWPS9KoWBWsBeKDbhgj9uPDNkuqluQdCnGid5RU
6AMtFkRSh5OFQZxlG1FCSOPgdKh+IoOzdbQ+u43ZaH+DV0ELuy+Cfa8CDgSlusr1
M0U5focEjlCjs3TrrlSHYj22YwgRpu3UVMzOcw/Uj8n/M9Ng10XzVGnGQ+8mSi08
Pc85IURAQCqbhrUCAwEAAaNPME0wEwYDVR0lBAwwCgYIKwYBBQUHAwIwNgYDVR0f
BC8wLTAroCmgJ4YlaHR0cDovL3d3dy5leGFtcGxlLmNvbS9leGFtcGxlX2NhLmNy
bDANBgkqhkiG9w0BAQUFAAOCAgEArEw2K1ankd74MbSaGGcX+wBhIGYYvg7vO9k0
ETyvHPB4gOTGmd+XQAUr+pYG9HLNnmJUaFIqLNAl9jHuD2zrSsseAwioEj5Rn28o
8Hq8KAMtv8Gbkv2vJvULP2P0hwDISWfHZIcfabllMdg10G9VjaJpzaLsf85i4vjy
XN9Usi2F+hHVkFtJ4bSqYb3OiWg0Wjd5EuavisWLVJvwRtSXd1lnHU6NyQv+FJCt
n2FSJY7QofCEiae3Fi0Fnxsh8kJD+MHeJaxd9fAhBG3oiCnb2CckGvUW2xoaZD6+
yg9ONn4cleWPTUwZgB9YCpbE9CalMsxA9Vb11LN7uOBd4xsrFTtYFmdlOX/E32oO
m8FHPGSaRw+UE809rHr25GWkG2j0gjTCEleyxoHaCfFjY7Gz0jo4mZzS6hjfH7Ld
1GgXDhjcDxgaA4Og9h0WAJdxHjNfJ1xb4HvmfBeLiPuH5hz4w6v3w/CRj/cQIzHX
CfuUlIwYwX7jjh/BXBc0D8ZYOinSF29BuJTKT9qxu5YgZspMJHdd+BTZaFFVFGQ3
3go/7CAtwfxLW2rPzhWgjrlzkRz/QhhXUQld0GdVyYiCP6y4lZPDDVqTCf7pRGqr
/5cPo55cY1nRdZMa9oJ8pFByDqm7T+Pggf4pj9wnbLOoERUrXUu8ygPy8ilcHb56
gr2aCdk=
-----END CERTIFICATE-----
