Certificate:
    Data:
        Version: 3 (0x2)
        Serial Number: 11 (0xb)
        Signature Algorithm: sha1WithRSAEncryption
        Issuer: C=US, ST=Colorado, L=Colorado Springs, O=LinkRunner Engineering/emailAddress=admin@linkrunner.org, CN=LinkRunner Engineering Certificate Authority
        Validity
            Not Before: Feb  8 16:57:49 2019 GMT
            Not After : Feb  5 16:57:49 2029 GMT
        Subject: C=US, ST=Colorado, O=LinkRunner Engineering, CN=user1024sha1@example.org/emailAddress=user1024sha1@example.org
        Subject Public Key Info:
            Public Key Algorithm: rsaEncryption
                RSA Public-Key: (1024 bit)
                Modulus:
                    00:bf:50:7f:39:f3:1c:47:2b:45:2f:44:10:48:d7:
                    61:c2:c8:db:c3:77:81:f6:0f:4b:ab:1a:b6:c7:9f:
                    a8:61:da:d1:01:be:65:11:b6:14:be:c3:bb:93:1a:
                    07:8b:dc:3a:18:a6:9d:82:c9:76:cf:b0:93:0c:7c:
                    9c:25:91:79:d7:5c:b9:56:ba:f8:48:43:b6:a4:9f:
                    92:3a:59:ac:8d:9f:af:59:77:e8:7d:96:87:10:d8:
                    73:49:b2:1e:5e:6c:cc:63:3d:9f:e6:8f:82:72:9d:
                    0f:83:94:00:d2:f4:92:ad:77:c7:df:b3:6c:9a:cf:
                    cb:c3:10:d2:cb:9a:fc:d7:dd
                Exponent: 65537 (0x10001)
        X509v3 extensions:
            X509v3 Extended Key Usage: 
                TLS Web Client Authentication
            X509v3 CRL Distribution Points: 

                Full Name:
                  URI:http://www.example.com/example_ca.crl

    Signature Algorithm: sha1WithRSAEncryption
         91:e2:c3:69:00:7a:9f:17:10:6f:27:58:c3:17:25:fc:f8:21:
         08:37:1c:16:50:d0:5f:42:0c:38:fd:91:41:58:c0:ab:ed:62:
         1f:dc:5f:91:2b:4f:b7:fa:ef:b1:33:b4:ba:39:83:8c:88:98:
         49:3b:ba:3f:61:f3:8c:b6:ad:68:06:f5:65:0a:fd:6a:36:1b:
         0e:7d:b9:4a:56:a3:df:11:f5:7c:d7:2f:5c:eb:93:02:45:5c:
         cb:fd:52:af:cc:7f:5d:ba:66:66:cc:d0:8b:34:07:da:1f:8f:
         20:5d:03:d8:5a:af:d7:dc:65:01:d1:1a:cb:63:e7:fc:1a:b4:
         7a:3a:3b:68:5b:cb:73:de:88:96:7a:37:c8:ab:2d:ae:60:5d:
         9a:5d:d6:39:ca:30:90:c6:27:f9:68:ab:bc:e3:ea:59:0d:a7:
         b5:2f:2d:91:ac:b6:18:d2:81:85:88:31:ea:ec:ba:37:98:e4:
         60:18:ab:b5:07:1b:81:61:31:07:de:a3:fd:7c:b3:78:7e:b8:
         c5:df:fc:c3:fd:60:d8:52:55:10:27:1e:ba:43:39:80:65:d4:
         f8:a7:85:56:b3:3e:1e:f2:77:38:df:3c:18:9a:02:43:37:75:
         ec:08:9d:1c:50:bb:f2:9e:bc:70:a6:d7:6f:fe:a9:6d:20:57:
         f1:f2:3d:f0:a4:46:c4:3d:83:a3:90:53:18:02:6a:96:dd:6b:
         37:5d:18:58:fa:23:ee:19:0b:a3:dc:a3:5d:16:be:34:4d:41:
         57:48:41:9d:4b:ea:64:27:3f:5f:fd:be:63:b7:be:e1:77:12:
         6e:b0:29:9f:00:5e:ee:50:23:89:58:30:c1:20:57:74:f4:06:
         c4:41:f8:96:98:6e:6a:e2:76:ff:b1:f3:3a:f3:30:a5:45:aa:
         12:48:42:3d:fa:ad:60:d2:e4:fb:9c:9f:ee:96:01:c2:b7:d7:
         06:71:2a:7a:da:df:33:bf:e8:c0:8e:aa:d1:a6:34:d0:a1:a5:
         e7:04:9d:d5:11:38:18:db:bc:30:c4:cb:ea:1e:18:42:30:6c:
         2e:1a:b2:37:63:00:1c:9d:0a:2e:f4:3e:7c:97:9d:6a:5f:c4:
         96:a3:33:ce:bb:78:d2:b7:89:85:51:cc:7b:53:8e:fd:ca:e4:
         86:aa:38:45:65:be:c8:2f:91:54:24:10:fc:0f:44:16:43:07:
         2e:f4:02:d7:28:52:5a:d4:40:66:38:ef:a5:d8:98:73:dc:9a:
         00:6b:ef:e0:a7:8b:b4:cf:9f:33:6f:e9:c1:d0:c9:b8:af:64:
         98:39:6e:4b:64:f4:56:d1:24:df:7a:6b:55:02:48:36:d3:48:
         23:48:da:3d:c1:60:0d:c4
-----BEGIN CERTIFICATE-----
MIIEjTCCAnWgAwIBAgIBCzANBgkqhkiG9w0BAQUFADCBuDELMAkGA1UEBhMCVVMx
ETAPBgNVBAgMCENvbG9yYWRvMRkwFwYDVQQHDBBDb2xvcmFkbyBTcHJpbmdzMR8w
HQYDVQQKDBZMaW5rUnVubmVyIEVuZ2luZWVyaW5nMSMwIQYJKoZIhvcNAQkBFhRh
ZG1pbkBsaW5rcnVubmVyLm9yZzE1MDMGA1UEAwwsTGlua1J1bm5lciBFbmdpbmVl
cmluZyBDZXJ0aWZpY2F0ZSBBdXRob3JpdHkwHhcNMTkwMjA4MTY1NzQ5WhcNMjkw
MjA1MTY1NzQ5WjCBjTELMAkGA1UEBhMCVVMxETAPBgNVBAgMCENvbG9yYWRvMR8w
HQYDVQQKDBZMaW5rUnVubmVyIEVuZ2luZWVyaW5nMSEwHwYDVQQDDBh1c2VyMTAy
NHNoYTFAZXhhbXBsZS5vcmcxJzAlBgkqhkiG9w0BCQEWGHVzZXIxMDI0c2hhMUBl
eGFtcGxlLm9yZzCBnzANBgkqhkiG9w0BAQEFAAOBjQAwgYkCgYEAv1B/OfMcRytF
L0QQSNdhwsjbw3eB9g9Lqxq2x5+oYdrRAb5lEbYUvsO7kxoHi9w6GKadgsl2z7CT
DHycJZF511y5Vrr4SEO2pJ+SOlmsjZ+vWXfofZaHENhzSbIeXmzMYz2f5o+Ccp0P
g5QA0vSSrXfH37Nsms/LwxDSy5r8190CAwEAAaNPME0wEwYDVR0lBAwwCgYIKwYB
BQUHAwIwNgYDVR0fBC8wLTAroCmgJ4YlaHR0cDovL3d3dy5leGFtcGxlLmNvbS9l
eGFtcGxlX2NhLmNybDANBgkqhkiG9w0BAQUFAAOCAgEAkeLDaQB6nxcQbydYwxcl
/PghCDccFlDQX0IMOP2RQVjAq+1iH9xfkStPt/rvsTO0ujmDjIiYSTu6P2HzjLat
aAb1ZQr9ajYbDn25Slaj3xH1fNcvXOuTAkVcy/1Sr8x/XbpmZszQizQH2h+PIF0D
2Fqv19xlAdEay2Pn/Bq0ejo7aFvLc96Ilno3yKstrmBdml3WOcowkMYn+WirvOPq
WQ2ntS8tkay2GNKBhYgx6uy6N5jkYBirtQcbgWExB96j/XyzeH64xd/8w/1g2FJV
ECceukM5gGXU+KeFVrM+HvJ3ON88GJoCQzd17AidHFC78p68cKbXb/6pbSBX8fI9
8KRGxD2Do5BTGAJqlt1rN10YWPoj7hkLo9yjXRa+NE1BV0hBnUvqZCc/X/2+Y7e+
4XcSbrApnwBe7lAjiVgwwSBXdPQGxEH4lphuauJ2/7HzOvMwpUWqEkhCPfqtYNLk
+5yf7pYBwrfXBnEqetrfM7/owI6q0aY00KGl5wSd1RE4GNu8MMTL6h4YQjBsLhqy
N2MAHJ0KLvQ+fJedal/ElqMzzrt40reJhVHMe1OO/crkhqo4RWW+yC+RVCQQ/A9E
FkMHLvQC1yhSWtRAZjjvpdiYc9yaAGvv4KeLtM+fM2/pwdDJuK9kmDluS2T0VtEk
33prVQJINtNII0jaPcFgDcQ=
-----END CERTIFICATE-----
