Certificate:
    Data:
        Version: 3 (0x2)
        Serial Number: 12 (0xc)
        Signature Algorithm: sha512WithRSAEncryption
        Issuer: C=US, ST=Colorado, L=Colorado Springs, O=LinkRunner Engineering/emailAddress=admin@linkrunner.org, CN=LinkRunner Engineering Certificate Authority
        Validity
            Not Before: Feb  8 18:08:51 2019 GMT
            Not After : Feb  5 18:08:51 2029 GMT
        Subject: C=US, ST=Colorado, O=LinkRunner Engineering, CN=user1024sha512@example.org/emailAddress=user1024sha512@example.org
        Subject Public Key Info:
            Public Key Algorithm: rsaEncryption
                RSA Public-Key: (1024 bit)
                Modulus:
                    00:ba:5a:9b:f6:83:75:3a:eb:f6:4c:7d:79:6e:7c:
                    c9:c2:6a:f1:c3:d2:a9:cf:54:df:bb:89:86:8c:2a:
                    1b:ae:b9:cc:18:84:99:63:21:c0:dd:da:79:fc:61:
                    de:28:fb:fd:4e:7b:8a:6e:62:ed:a3:bd:a4:d1:ee:
                    8e:09:6a:de:75:77:88:ec:f4:f4:f2:f7:15:d0:8f:
                    e3:1f:67:a4:6b:2e:8f:27:7f:e3:ff:ea:98:d3:ea:
                    5b:e7:46:65:d8:20:f4:14:95:84:30:dd:b8:96:d9:
                    8c:7a:18:f0:52:84:1d:88:17:d8:0b:41:15:d7:de:
                    99:bb:dd:f7:1c:c5:57:73:4d
                Exponent: 65537 (0x10001)
        X509v3 extensions:
            X509v3 Extended Key Usage: 
                TLS Web Client Authentication
            X509v3 CRL Distribution Points: 

                Full Name:
                  URI:http://www.example.com/example_ca.crl

    Signature Algorithm: sha512WithRSAEncryption
         8b:7d:b2:1f:e7:8d:4b:7b:4c:50:f5:79:87:a0:9c:43:33:34:
         ca:31:c1:1b:33:89:bd:4b:58:07:f7:7e:02:05:b4:ef:0c:3b:
         74:24:d2:2f:a3:a6:3d:d5:c4:2a:cc:5f:1d:29:76:f6:55:b2:
         50:06:b7:a5:65:bb:a6:69:86:52:73:11:cc:21:ca:d6:cb:6a:
         5e:c9:43:33:c0:39:28:14:16:02:cc:73:59:56:73:31:9b:87:
         df:b2:f7:16:28:f6:3a:9a:d8:3c:7a:d0:7e:ef:84:4b:69:97:
         34:2f:23:f0:d6:77:fc:18:2c:eb:4f:fc:40:24:81:73:88:70:
         a5:b4:0e:fd:7e:e1:0f:f9:e6:86:ed:31:30:41:cf:52:4d:26:
         94:05:6a:35:06:63:b5:70:2e:22:51:24:84:d0:3d:98:ae:f6:
         b7:0e:f3:91:02:61:0e:0f:8e:59:c2:f0:40:90:7d:33:73:e9:
         8b:0e:74:5e:fa:c9:b0:55:23:57:85:65:67:9f:57:c4:48:db:
         f9:47:e8:18:e0:2e:19:7d:5e:4b:83:77:54:a4:b2:a0:0a:16:
         6a:05:ff:52:73:28:63:c0:93:69:7d:24:7e:73:12:37:ed:46:
         00:bc:b4:1a:f2:f9:20:d2:20:3b:3e:7d:04:bc:47:7f:bf:b9:
         fa:4c:8f:51:23:be:7b:ae:6b:98:f3:f3:19:31:5a:cc:3b:4b:
         4a:0d:db:6c:c3:ae:fe:ea:61:f9:ad:e8:ac:bd:25:f6:d5:88:
         81:89:eb:5b:67:23:dc:a0:a5:c9:c5:32:61:77:0c:97:39:4d:
         3d:de:d4:f9:69:6e:d7:7d:68:b9:ec:8a:24:df:6d:23:5f:9d:
         73:de:b2:67:fe:9e:2b:b6:45:50:ed:c1:a1:26:7a:a6:fb:f4:
         29:1d:3b:48:00:4e:31:c9:77:6a:98:cb:c9:2c:35:37:f1:0b:
         c1:51:2c:6b:f9:62:cc:89:2d:c3:02:1f:d7:e8:83:37:6b:69:
         03:46:df:4d:d5:d6:d3:f0:78:cd:e7:bf:25:5d:2a:28:47:b0:
         ca:f0:75:11:0e:c8:05:0c:99:ca:0b:b5:4c:b4:20:fb:68:84:
         21:c1:5c:73:c1:d3:14:c6:4c:af:65:d1:fe:27:86:19:d9:5d:
         8e:dc:b7:d7:78:aa:85:66:5d:f8:d9:c1:e5:3b:5b:d2:d0:16:
         d5:80:e2:d3:bb:36:85:cb:48:38:42:8f:01:8a:2b:e0:62:c2:
         82:93:e6:c8:16:5d:86:4a:93:20:39:2f:9a:67:64:b0:23:e0:
         4e:7c:f2:c5:68:58:98:d2:a2:a8:69:3d:5d:2d:58:31:ce:73:
         dc:7b:10:84:8e:52:2a:23
-----BEGIN CERTIFICATE-----
MIIEkTCCAnmgAwIBAgIBDDANBgkqhkiG9w0BAQ0FADCBuDELMAkGA1UEBhMCVVMx
ETAPBgNVBAgMCENvbG9yYWRvMRkwFwYDVQQHDBBDb2xvcmFkbyBTcHJpbmdzMR8w
HQYDVQQKDBZMaW5rUnVubmVyIEVuZ2luZWVyaW5nMSMwIQYJKoZIhvcNAQkBFhRh
ZG1pbkBsaW5rcnVubmVyLm9yZzE1MDMGA1UEAwwsTGlua1J1bm5lciBFbmdpbmVl
cmluZyBDZXJ0aWZpY2F0ZSBBdXRob3JpdHkwHhcNMTkwMjA4MTgwODUxWhcNMjkw
MjA1MTgwODUxWjCBkTELMAkGA1UEBhMCVVMxETAPBgNVBAgMCENvbG9yYWRvMR8w
HQYDVQQKDBZMaW5rUnVubmVyIEVuZ2luZWVyaW5nMSMwIQYDVQQDDBp1c2VyMTAy
NHNoYTUxMkBleGFtcGxlLm9yZzEpMCcGCSqGSIb3DQEJARYadXNlcjEwMjRzaGE1
MTJAZXhhbXBsZS5vcmcwgZ8wDQYJKoZIhvcNAQEBBQADgY0AMIGJAoGBALpam/aD
dTrr9kx9eW58ycJq8cPSqc9U37uJhowqG665zBiEmWMhwN3aefxh3ij7/U57im5i
7aO9pNHujglq3nV3iOz09PL3FdCP4x9npGsujyd/4//qmNPqW+dGZdgg9BSVhDDd
uJbZjHoY8FKEHYgX2AtBFdfembvd9xzFV3NNAgMBAAGjTzBNMBMGA1UdJQQMMAoG
CCsGAQUFBwMCMDYGA1UdHwQvMC0wK6ApoCeGJWh0dHA6Ly93d3cuZXhhbXBsZS5j
b20vZXhhbXBsZV9jYS5jcmwwDQYJKoZIhvcNAQENBQADggIBAIt9sh/njUt7TFD1
eYegnEMzNMoxwRszib1LWAf3fgIFtO8MO3Qk0i+jpj3VxCrMXx0pdvZVslAGt6Vl
u6ZphlJzEcwhytbLal7JQzPAOSgUFgLMc1lWczGbh9+y9xYo9jqa2Dx60H7vhEtp
lzQvI/DWd/wYLOtP/EAkgXOIcKW0Dv1+4Q/55obtMTBBz1JNJpQFajUGY7VwLiJR
JITQPZiu9rcO85ECYQ4PjlnC8ECQfTNz6YsOdF76ybBVI1eFZWefV8RI2/lH6Bjg
Lhl9XkuDd1SksqAKFmoF/1JzKGPAk2l9JH5zEjftRgC8tBry+SDSIDs+fQS8R3+/
ufpMj1Ejvnuua5jz8xkxWsw7S0oN22zDrv7qYfmt6Ky9JfbViIGJ61tnI9ygpcnF
MmF3DJc5TT3e1Plpbtd9aLnsiiTfbSNfnXPesmf+niu2RVDtwaEmeqb79CkdO0gA
TjHJd2qYy8ksNTfxC8FRLGv5YsyJLcMCH9fogzdraQNG303V1tPweM3nvyVdKihH
sMrwdREOyAUMmcoLtUy0IPtohCHBXHPB0xTGTK9l0f4nhhnZXY7ct9d4qoVmXfjZ
weU7W9LQFtWA4tO7NoXLSDhCjwGKK+BiwoKT5sgWXYZKkyA5L5pnZLAj4E588sVo
WJjSoqhpPV0tWDHOc9x7EISOUioj
-----END CERTIFICATE-----
