Certificate:
    Data:
        Version: 3 (0x2)
        Serial Number: 13 (0xd)
        Signature Algorithm: sha512WithRSAEncryption
        Issuer: C=US, ST=Colorado, L=Colorado Springs, O=LinkRunner Engineering/emailAddress=admin@linkrunner.org, CN=LinkRunner Engineering Certificate Authority
        Validity
            Not Before: Feb  8 18:09:51 2019 GMT
            Not After : Feb  5 18:09:51 2029 GMT
        Subject: C=US, ST=Colorado, O=LinkRunner Engineering, CN=user2048sha512@example.org/emailAddress=user2048sha512@example.org
        Subject Public Key Info:
            Public Key Algorithm: rsaEncryption
                RSA Public-Key: (2048 bit)
                Modulus:
                    00:ce:05:c8:bc:c9:db:19:0a:69:02:bb:e6:19:c7:
                    f1:35:e0:c0:88:75:d5:41:8e:6f:03:a7:47:09:5a:
                    21:a5:de:82:bc:8c:91:63:54:d8:70:cf:77:80:36:
                    fe:97:49:38:0b:89:9c:3b:39:68:51:69:da:9d:47:
                    7f:2f:16:cb:21:9f:ba:e0:84:53:c5:df:fb:f7:30:
                    92:b5:1d:f7:a3:b9:d4:07:87:70:34:8f:58:7f:53:
                    98:43:43:55:14:91:1c:1a:d3:6e:05:70:6a:75:32:
                    12:29:64:9b:2e:c9:ae:3b:9d:9b:1f:5c:6d:89:06:
                    2a:48:02:e9:f7:c2:c2:52:03:8e:9a:99:ba:3d:ed:
                    a8:2b:6c:d4:45:ad:e0:7f:6f:c5:ce:9b:4d:2a:db:
                    c9:62:40:40:cc:fc:ea:f3:b6:da:a4:86:f7:ad:73:
                    e1:5b:24:ce:04:b0:1c:a8:81:8b:6a:1e:04:ae:e4:
                    59:21:29:3c:51:a7:a4:12:76:33:16:72:0f:1e:87:
                    70:e6:fe:61:92:45:1b:11:c3:cd:d8:3a:5f:71:e4:
                    d8:fc:32:05:0f:be:e2:b5:7a:7a:bd:f8:6d:4b:11:
                    99:d1:2a:df:7a:b7:b1:22:4d:d6:d7:5a:c0:9a:ce:
                    3a:a1:73:ef:0f:3a:76:fd:10:f6:fc:f3:f2:ee:a0:
                    da:e3
                Exponent: 65537 (0x10001)
        X509v3 extensions:
            X509v3 Extended Key Usage: 
                TLS Web Client Authentication
            X509v3 CRL Distribution Points: 

                Full Name:
                  URI:http://www.example.com/example_ca.crl

    Signature Algorithm: sha512WithRSAEncryption
         79:50:d1:7e:09:b4:de:89:1f:ab:6f:eb:5c:d7:06:89:4f:a0:
         60:fd:c9:72:1c:23:73:ff:74:db:22:04:de:59:f9:b1:87:73:
         8e:ae:49:f9:73:fb:8d:38:96:09:6c:cf:aa:ec:6e:95:b7:ba:
         e8:fd:d3:8d:70:6f:b8:b5:f1:bd:07:80:24:79:31:6b:12:89:
         55:ff:b1:73:9f:c6:4e:ac:9a:81:3d:47:75:0e:33:8b:6b:b6:
         13:a6:1a:e8:6c:7a:d6:ae:80:0a:60:18:16:17:86:5a:9c:c0:
         0c:ef:06:cf:9b:4e:08:e5:da:93:1e:ae:ac:25:c0:8a:65:72:
         ee:cd:b7:e0:22:17:f2:08:94:e3:90:f9:d5:c8:d7:8d:ad:c3:
         06:6c:83:12:42:f5:b3:cc:aa:da:40:40:8f:14:68:04:90:1b:
         f2:f6:1d:89:f9:eb:99:b9:ab:3b:40:1d:5e:01:db:b9:ba:6a:
         d4:83:40:3d:84:c8:6c:63:e9:f2:b3:06:df:4d:bf:10:a2:e7:
         64:ee:05:8b:18:f7:15:dd:a7:0d:3d:31:2c:f4:92:a0:0e:02:
         1c:3c:e7:2b:1a:04:e9:fb:68:7b:62:4e:f9:e3:0f:d6:f9:8f:
         eb:3d:e5:a2:5f:42:0f:f0:c4:c9:41:dd:9d:67:3d:96:3d:e5:
         68:96:71:15:61:76:fa:4b:22:22:a7:27:69:63:be:51:08:47:
         1d:6d:f2:eb:7f:96:bf:dc:82:a3:d9:b8:85:cc:35:db:3a:4b:
         15:23:7e:10:74:47:39:b6:d9:c5:5a:9c:44:7e:50:7c:68:40:
         ea:ef:ac:07:48:2d:e5:ac:40:ad:e9:3f:34:ac:ab:b4:10:89:
         2f:28:48:af:93:cf:c2:4d:cb:f8:a2:aa:3f:5d:69:75:ae:58:
         ca:f3:26:8e:a6:36:0b:8e:13:9e:7c:23:6d:30:78:18:39:18:
         5a:88:d6:0a:26:0b:40:56:ef:59:5d:35:53:c9:c0:ba:27:ba:
         86:56:9e:30:66:55:c6:da:2b:48:12:3b:2f:81:96:5d:d2:4e:
         79:5b:31:17:c3:d5:f6:1a:59:9f:4b:78:be:56:c2:97:ff:13:
         93:82:e1:75:84:df:2c:0d:6b:4a:af:f9:89:71:9e:fe:63:ef:
         a4:b6:83:2e:e9:4c:9b:85:2d:36:12:27:84:ff:f4:d5:bb:ea:
         15:f4:7d:d2:0d:ed:e0:0f:47:16:d9:ea:4d:c9:f6:16:94:de:
         8b:25:ee:a4:95:33:9f:c9:e4:2d:86:ec:90:fe:59:66:5b:2b:
         4d:f7:f9:15:47:56:3f:7f:7a:f6:db:52:73:f0:91:fb:86:50:
         fc:ba:de:2b:9c:d0:9a:40
-----BEGIN CERTIFICATE-----
MIIFFTCCAv2gAwIBAgIBDTANBgkqhkiG9w0BAQ0FADCBuDELMAkGA1UEBhMCVVMx
ETAPBgNVBAgMCENvbG9yYWRvMRkwFwYDVQQHDBBDb2xvcmFkbyBTcHJpbmdzMR8w
HQYDVQQKDBZMaW5rUnVubmVyIEVuZ2luZWVyaW5nMSMwIQYJKoZIhvcNAQkBFhRh
ZG1pbkBsaW5rcnVubmVyLm9yZzE1MDMGA1UEAwwsTGlua1J1bm5lciBFbmdpbmVl
cmluZyBDZXJ0aWZpY2F0ZSBBdXRob3JpdHkwHhcNMTkwMjA4MTgwOTUxWhcNMjkw
MjA1MTgwOTUxWjCBkTELMAkGA1UEBhMCVVMxETAPBgNVBAgMCENvbG9yYWRvMR8w
HQYDVQQKDBZMaW5rUnVubmVyIEVuZ2luZWVyaW5nMSMwIQYDVQQDDBp1c2VyMjA0
OHNoYTUxMkBleGFtcGxlLm9yZzEpMCcGCSqGSIb3DQEJARYadXNlcjIwNDhzaGE1
MTJAZXhhbXBsZS5vcmcwggEiMA0GCSqGSIb3DQEBAQUAA4IBDwAwggEKAoIBAQDO
Bci8ydsZCmkCu+YZx/E14MCIddVBjm8Dp0cJWiGl3oK8jJFjVNhwz3eANv6XSTgL
iZw7OWhRadqdR38vFsshn7rghFPF3/v3MJK1HfejudQHh3A0j1h/U5hDQ1UUkRwa
024FcGp1MhIpZJsuya47nZsfXG2JBipIAun3wsJSA46ambo97agrbNRFreB/b8XO
m00q28liQEDM/Orzttqkhvetc+FbJM4EsByogYtqHgSu5FkhKTxRp6QSdjMWcg8e
h3Dm/mGSRRsRw83YOl9x5Nj8MgUPvuK1enq9+G1LEZnRKt96t7EiTdbXWsCazjqh
c+8POnb9EPb88/LuoNrjAgMBAAGjTzBNMBMGA1UdJQQMMAoGCCsGAQUFBwMCMDYG
A1UdHwQvMC0wK6ApoCeGJWh0dHA6Ly93d3cuZXhhbXBsZS5jb20vZXhhbXBsZV9j
YS5jcmwwDQYJKoZIhvcNAQENBQADggIBAHlQ0X4JtN6JH6tv61zXBolPoGD9yXIc
I3P/dNsiBN5Z+bGHc46uSflz+404lglsz6rsbpW3uuj9041wb7i18b0HgCR5MWsS
iVX/sXOfxk6smoE9R3UOM4trthOmGuhsetaugApgGBYXhlqcwAzvBs+bTgjl2pMe
rqwlwIplcu7Nt+AiF/IIlOOQ+dXI142twwZsgxJC9bPMqtpAQI8UaASQG/L2HYn5
65m5qztAHV4B27m6atSDQD2EyGxj6fKzBt9NvxCi52TuBYsY9xXdpw09MSz0kqAO
Ahw85ysaBOn7aHtiTvnjD9b5j+s95aJfQg/wxMlB3Z1nPZY95WiWcRVhdvpLIiKn
J2ljvlEIRx1t8ut/lr/cgqPZuIXMNds6SxUjfhB0Rzm22cVanER+UHxoQOrvrAdI
LeWsQK3pPzSsq7QQiS8oSK+Tz8JNy/iiqj9daXWuWMrzJo6mNguOE558I20weBg5
GFqI1gomC0BW71ldNVPJwLonuoZWnjBmVcbaK0gSOy+Bll3STnlbMRfD1fYaWZ9L
eL5Wwpf/E5OC4XWE3ywNa0qv+Ylxnv5j76S2gy7pTJuFLTYSJ4T/9NW76hX0fdIN
7eAPRxbZ6k3J9haU3osl7qSVM5/J5C2G7JD+WWZbK033+RVHVj9/evbbUnPwkfuG
UPy63iuc0JpA
-----END CERTIFICATE-----
