Certificate:
    Data:
        Version: 3 (0x2)
        Serial Number: 14 (0xe)
        Signature Algorithm: sha512WithRSAEncryption
        Issuer: C=US, ST=Colorado, L=Colorado Springs, O=LinkRunner Engineering/emailAddress=admin@linkrunner.org, CN=LinkRunner Engineering Certificate Authority
        Validity
            Not Before: Feb  8 18:10:57 2019 GMT
            Not After : Feb  5 18:10:57 2029 GMT
        Subject: C=US, ST=Colorado, O=LinkRunner Engineering, CN=user4096sha512@example.org/emailAddress=user4096sha512@example.org
        Subject Public Key Info:
            Public Key Algorithm: rsaEncryption
                RSA Public-Key: (4096 bit)
                Modulus:
                    00:a9:10:be:01:f6:b6:92:09:9e:f6:44:9b:20:48:
                    a5:d0:a4:73:59:ac:e7:74:f3:bb:9f:aa:74:a1:fe:
                    96:c3:55:f3:57:fa:51:81:85:1e:fa:ff:33:48:12:
                    6e:03:0f:07:5c:3f:98:b5:7e:0e:a0:df:ae:20:b8:
                    ce:fc:08:0b:98:69:69:5b:60:6c:41:ad:d1:8e:78:
                    a5:1c:2f:1f:85:f7:e8:2a:55:f4:fe:b6:b3:85:d9:
                    e8:d2:af:db:be:00:ef:61:62:20:b6:22:c0:95:99:
                    26:98:46:2f:2e:79:6b:1f:e5:36:dc:5e:dd:78:d0:
                    35:b0:c8:28:e7:59:37:e9:f4:28:fc:0a:41:9f:53:
                    70:4e:fd:80:63:6f:76:20:f8:bc:c9:b5:e1:b9:7f:
                    c1:45:15:21:b4:9c:36:2e:ff:85:b5:19:0c:c8:6d:
                    e4:da:fc:20:f1:6d:c8:51:0a:22:34:9b:0a:a3:df:
                    d7:1a:a5:1d:b1:ad:c0:0a:eb:e9:35:2e:3b:8a:37:
                    0c:f6:b5:87:9f:3c:7b:f7:4c:fb:48:d8:87:71:4e:
                    aa:89:d9:5d:db:ca:4b:70:83:de:f1:10:21:e5:a1:
                    5b:5f:4f:46:6c:a3:40:d2:c7:9b:e1:e3:7e:0c:78:
                    ae:fa:27:5b:7e:b3:cc:bf:c6:e6:e4:8a:cb:cb:82:
                    6f:7b:4a:4b:fa:d7:e8:7e:54:5b:07:b5:c6:ca:b1:
                    a9:71:a1:66:92:f2:07:3c:88:0e:ae:71:48:da:c2:
                    ae:78:de:be:c1:dd:be:fc:ab:09:47:a2:5b:67:c8:
                    bf:e0:f1:d0:f5:0a:ad:69:33:26:57:50:1a:f0:e2:
                    41:17:1b:81:d1:66:0c:30:dd:b1:03:c4:4a:e7:a0:
                    11:66:1e:ca:34:fc:f9:86:c5:5a:0f:f8:ac:b1:41:
                    78:a6:f4:3d:ab:1e:52:2a:8e:ad:1e:1e:ac:e8:cd:
                    03:a6:30:9a:45:72:c4:96:02:70:3f:91:d0:69:e7:
                    03:a1:df:a5:8a:ea:3d:39:d6:1b:38:e3:7e:58:46:
                    81:3d:1a:25:70:8b:b6:2b:25:29:18:41:cf:f7:d5:
                    8d:8c:bc:1f:fd:ea:dd:61:c7:87:4e:9b:70:35:db:
                    d4:af:3c:dc:08:32:b2:02:fb:fe:f4:e1:a3:f2:2e:
                    91:3e:94:d8:ed:75:b2:3d:cf:be:7e:53:b8:66:b0:
                    8c:7f:a4:8c:23:d1:47:e4:43:be:d9:c7:84:b9:8c:
                    b0:81:a6:6a:d4:50:29:2f:ed:74:d9:d8:0a:84:5c:
                    b1:20:e4:2c:f0:9b:58:17:e9:a9:61:76:ae:a9:fd:
                    59:a6:a4:54:77:ea:06:81:6f:10:53:60:67:f2:f0:
                    8a:39:9d
                Exponent: 65537 (0x10001)
        X509v3 extensions:
            X509v3 Extended Key Usage: 
                TLS Web Client Authentication
            X509v3 CRL Distribution Points: 

                Full Name:
                  URI:http://www.example.com/example_ca.crl

    Signature Algorithm: sha512WithRSAEncryption
         88:36:37:77:e0:5e:9c:60:25:8b:3d:39:7f:4d:90:da:3c:cc:
         ee:a6:78:99:35:94:f0:8d:9a:8a:32:44:19:f7:c9:c1:18:7f:
         79:3c:11:9f:c0:81:d0:e3:59:f8:64:5e:42:28:31:ff:8e:7a:
         df:ea:7c:71:7d:ca:9d:d7:49:46:6a:ec:7e:45:c7:36:f3:3c:
         c3:85:05:92:e1:40:72:6f:af:69:7a:e1:88:6f:e9:2c:07:a1:
         16:3a:eb:e2:62:5e:67:42:9b:d8:d2:48:0f:85:35:a3:21:b6:
         b1:e7:97:bd:51:a4:93:2c:01:4f:19:50:6a:46:25:a3:46:66:
         2e:62:f1:2c:ee:35:27:8e:30:2a:37:20:ee:42:aa:d6:4c:df:
         ee:81:f2:f4:10:06:cd:ee:75:f7:bc:ae:e7:00:14:f8:f9:a3:
         3e:80:73:06:c3:93:45:c9:64:88:50:78:30:53:bb:86:d6:51:
         c6:3b:f8:d8:e7:7a:eb:eb:4a:13:57:3f:5e:9d:b2:82:68:64:
         c0:f7:6a:c1:20:ef:2d:52:60:e5:fb:fc:ed:6a:cc:dd:bb:a4:
         98:56:90:ff:63:3e:e9:d7:df:c1:c2:b9:14:12:1f:0c:5c:7c:
         49:62:f6:98:22:52:56:a5:e6:51:83:59:36:10:98:04:46:3d:
         fe:4b:4f:51:8b:c7:e8:88:91:93:11:11:15:db:08:74:84:45:
         ab:cb:af:97:af:67:29:ac:e6:18:bd:cb:c7:36:90:81:44:c0:
         af:ef:3f:ef:ff:38:a6:32:01:e5:4b:3f:fc:51:07:31:f4:84:
         9f:0f:5f:b9:8b:dc:12:4a:66:d0:49:27:ef:84:3b:5c:1d:54:
         81:f5:fe:52:d9:50:c6:d7:f5:8a:e3:c0:de:f6:40:fc:db:1e:
         3d:d1:0d:23:32:25:fc:e9:df:37:47:26:01:51:fa:a7:ce:f8:
         7e:9e:89:54:0b:64:67:8c:c7:b1:74:64:d3:eb:2c:b9:ef:63:
         2a:8e:b0:a1:c7:56:c6:84:ee:7e:ed:85:30:4a:af:de:a6:0c:
         7e:6d:a5:2c:e5:3a:6e:c2:c5:23:8b:a5:a9:fa:7b:21:c3:a6:
         d0:45:47:9d:09:3d:f7:78:46:ae:a7:46:d6:a4:96:5f:77:2e:
         99:4b:15:3c:59:77:63:29:d9:06:a0:a3:05:7b:f3:7a:e4:c7:
         77:ef:b7:c5:c9:ff:9b:83:db:db:ec:e3:08:43:b0:1f:8c:44:
         85:dd:20:75:17:d5:6a:ca:51:c7:f5:7a:b4:d0:c7:f5:61:b0:
         29:09:ae:be:bb:99:4e:e1:46:79:eb:98:e1:91:97:87:c8:77:
         85:12:d9:40:20:81:d1:d1
-----BEGIN CERTIFICATE-----
MIIGFTCCA/2gAwIBAgIBDjANBgkqhkiG9w0BAQ0FADCBuDELMAkGA1UEBhMCVVMx
ETAPBgNVBAgMCENvbG9yYWRvMRkwFwYDVQQHDBBDb2xvcmFkbyBTcHJpbmdzMR8w
HQYDVQQKDBZMaW5rUnVubmVyIEVuZ2luZWVyaW5nMSMwIQYJKoZIhvcNAQkBFhRh
ZG1pbkBsaW5rcnVubmVyLm9yZzE1MDMGA1UEAwwsTGlua1J1bm5lciBFbmdpbmVl
cmluZyBDZXJ0aWZpY2F0ZSBBdXRob3JpdHkwHhcNMTkwMjA4MTgxMDU3WhcNMjkw
MjA1MTgxMDU3WjCBkTELMAkGA1UEBhMCVVMxETAPBgNVBAgMCENvbG9yYWRvMR8w
HQYDVQQKDBZMaW5rUnVubmVyIEVuZ2luZWVyaW5nMSMwIQYDVQQDDBp1c2VyNDA5
NnNoYTUxMkBleGFtcGxlLm9yZzEpMCcGCSqGSIb3DQEJARYadXNlcjQwOTZzaGE1
MTJAZXhhbXBsZS5vcmcwggIiMA0GCSqGSIb3DQEBAQUAA4ICDwAwggIKAoICAQCp
EL4B9raSCZ72RJsgSKXQpHNZrOd087ufqnSh/pbDVfNX+lGBhR76/zNIEm4DDwdc
P5i1fg6g364guM78CAuYaWlbYGxBrdGOeKUcLx+F9+gqVfT+trOF2ejSr9u+AO9h
YiC2IsCVmSaYRi8ueWsf5TbcXt140DWwyCjnWTfp9Cj8CkGfU3BO/YBjb3Yg+LzJ
teG5f8FFFSG0nDYu/4W1GQzIbeTa/CDxbchRCiI0mwqj39capR2xrcAK6+k1LjuK
Nwz2tYefPHv3TPtI2IdxTqqJ2V3byktwg97xECHloVtfT0Zso0DSx5vh434MeK76
J1t+s8y/xubkisvLgm97Skv61+h+VFsHtcbKsalxoWaS8gc8iA6ucUjawq543r7B
3b78qwlHoltnyL/g8dD1Cq1pMyZXUBrw4kEXG4HRZgww3bEDxErnoBFmHso0/PmG
xVoP+KyxQXim9D2rHlIqjq0eHqzozQOmMJpFcsSWAnA/kdBp5wOh36WK6j051hs4
435YRoE9GiVwi7YrJSkYQc/31Y2MvB/96t1hx4dOm3A129SvPNwIMrIC+/704aPy
LpE+lNjtdbI9z75+U7hmsIx/pIwj0UfkQ77Zx4S5jLCBpmrUUCkv7XTZ2AqEXLEg
5Czwm1gX6alhdq6p/VmmpFR36gaBbxBTYGfy8Io5nQIDAQABo08wTTATBgNVHSUE
DDAKBggrBgEFBQcDAjA2BgNVHR8ELzAtMCugKaAnhiVodHRwOi8vd3d3LmV4YW1w
bGUuY29tL2V4YW1wbGVfY2EuY3JsMA0GCSqGSIb3DQEBDQUAA4ICAQCINjd34F6c
YCWLPTl/TZDaPMzupniZNZTwjZqKMkQZ98nBGH95PBGfwIHQ41n4ZF5CKDH/jnrf
6nxxfcqd10lGaux+Rcc28zzDhQWS4UByb69peuGIb+ksB6EWOuviYl5nQpvY0kgP
hTWjIbax55e9UaSTLAFPGVBqRiWjRmYuYvEs7jUnjjAqNyDuQqrWTN/ugfL0EAbN
7nX3vK7nABT4+aM+gHMGw5NFyWSIUHgwU7uG1lHGO/jY53rr60oTVz9enbKCaGTA
92rBIO8tUmDl+/ztaszdu6SYVpD/Yz7p19/BwrkUEh8MXHxJYvaYIlJWpeZRg1k2
EJgERj3+S09Ri8foiJGTEREV2wh0hEWry6+Xr2cprOYYvcvHNpCBRMCv7z/v/zim
MgHlSz/8UQcx9ISfD1+5i9wSSmbQSSfvhDtcHVSB9f5S2VDG1/WK48De9kD82x49
0Q0jMiX86d83RyYBUfqnzvh+nolUC2RnjMexdGTT6yy572MqjrChx1bGhO5+7YUw
Sq/epgx+baUs5TpuwsUji6Wp+nshw6bQRUedCT33eEaup0bWpJZfdy6ZSxU8WXdj
KdkGoKMFe/N65Md377fFyf+bg9vb7OMIQ7AfjESF3SB1F9VqylHH9Xq00Mf1YbAp
Ca6+u5lO4UZ565jhkZeHyHeFEtlAIIHR0Q==
-----END CERTIFICATE-----
