Certificate:
    Data:
        Version: 3 (0x2)
        Serial Number: 15 (0xf)
        Signature Algorithm: sha512WithRSAEncryption
        Issuer: C=US, ST=Colorado, L=Colorado Springs, O=LinkRunner Engineering/emailAddress=admin@linkrunner.org, CN=LinkRunner Engineering Certificate Authority
        Validity
            Not Before: Feb  8 18:12:15 2019 GMT
            Not After : Feb  5 18:12:15 2029 GMT
        Subject: C=US, ST=Colorado, O=LinkRunner Engineering, CN=user8192sha512@example.org/emailAddress=user8192sha512@example.org
        Subject Public Key Info:
            Public Key Algorithm: rsaEncryption
                RSA Public-Key: (8192 bit)
                Modulus:
                    00:e8:f0:74:cc:f1:b5:a2:64:b0:ec:1b:00:1d:20:
                    fb:6c:68:06:47:2d:28:e9:cd:f8:d5:59:fc:50:11:
                    82:14:d1:a6:74:83:ea:7a:cb:0a:35:b3:37:e9:d2:
                    c9:8a:9b:7e:a0:dc:cc:4a:4f:10:8d:18:46:5e:b7:
                    32:ea:b7:8b:3a:6c:6f:14:5f:e7:3a:05:69:34:6f:
                    71:cc:17:61:1b:01:44:38:71:9d:ff:5e:12:4d:e6:
                    87:15:ae:c6:66:85:79:b7:85:45:53:4e:80:a3:e3:
                    15:cd:63:a9:91:f3:bf:01:ad:92:94:ce:2a:82:7b:
                    6c:fa:89:9a:66:14:ef:20:53:d7:de:af:cb:55:d1:
                    23:7d:71:87:d6:4a:3b:d2:5a:89:4a:5f:51:90:06:
                    80:8e:3b:84:be:ee:e3:7d:79:3f:fd:1f:3a:f5:54:
                    0e:c3:a8:e0:38:f7:b4:85:3d:6f:60:70:6f:e4:fe:
                    b0:f8:d8:ff:72:4e:7d:1c:e9:4f:bc:9a:33:ca:8a:
                    f8:35:b7:1e:7e:81:d5:f5:55:48:99:bc:ea:e0:9c:
                    ee:16:3f:e9:c0:c8:ea:b5:65:3a:51:0b:43:29:62:
                    e5:b7:13:6b:21:73:39:5c:b2:9a:14:06:0c:d6:69:
                    4f:3c:52:62:80:ed:91:30:41:77:53:f6:31:a8:8d:
                    47:6e:e0:bc:4a:80:2d:83:04:80:a0:d8:d3:ac:cb:
                    2d:5e:c5:70:b5:52:1e:b7:5a:41:ce:4b:fd:77:d7:
                    68:4e:c6:92:ac:fd:13:dc:43:ef:04:4f:48:a0:cc:
                    c1:fd:73:02:63:e3:e5:d8:07:5b:8c:f7:5b:4e:91:
                    0d:4b:23:4f:28:12:13:70:3a:58:ef:0c:cb:d0:8e:
                    5f:15:1d:19:29:25:10:e8:60:28:d0:50:f5:e9:35:
                    bc:50:b6:43:4a:f9:ff:c3:9f:73:89:65:eb:f9:2b:
                    6b:ce:e6:c3:b0:74:fa:4b:c1:d3:b4:ac:21:c8:52:
                    16:ee:c8:47:6e:92:fc:83:99:95:00:14:2b:e3:98:
                    fc:52:98:ac:3e:21:5a:33:a8:18:0e:38:ec:10:73:
                    6b:16:8e:0e:b2:64:95:73:fc:e0:5e:b7:07:6a:2d:
                    ba:30:d6:31:70:cf:cb:4d:c3:46:c3:5b:61:3c:48:
                    f8:c9:bc:83:cf:07:42:ad:5c:8b:1a:10:db:c2:17:
                    e4:f0:3d:86:d4:6d:89:ff:8c:62:c9:56:25:0d:80:
                    37:39:e6:2e:2e:28:de:66:99:b2:bb:a2:b4:77:93:
                    0b:99:c7:d2:5c:15:2c:c6:cb:c1:84:4c:e1:91:3b:
                    ac:87:50:08:25:5d:2b:e7:f4:10:e5:77:eb:e9:bf:
                    fa:f1:90:d2:2f:ca:31:39:2b:e8:15:24:95:4d:14:
                    91:3e:0c:25:e7:7c:cb:29:bb:5b:d4:a8:83:83:ef:
                    62:07:e9:c2:f4:bc:95:71:5a:0c:0c:e9:97:f6:fe:
                    cd:1a:f4:4e:4c:72:54:c2:d5:fa:b5:e6:e8:21:5b:
                    b9:58:06:ce:60:f7:5a:fe:d6:2b:7f:49:13:e8:81:
                    39:86:05:f5:d5:a9:61:09:a5:0a:3c:69:6e:c6:c6:
                    5d:ac:2e:13:48:84:1b:6a:7b:f1:9a:e0:c8:cb:00:
                    fc:9b:32:ab:57:5b:22:ea:86:28:20:b0:ae:f6:06:
                    3e:f1:80:fa:4a:5f:9a:87:51:6d:70:a6:a9:da:c8:
                    3f:6d:a4:6d:5e:b3:f5:87:ca:83:64:02:fa:44:21:
                    d6:88:a5:d2:25:7c:ab:0f:40:24:f4:13:bf:f7:99:
                    71:2b:4b:b7:1e:da:6b:97:54:bb:a7:a9:e7:d1:a2:
                    33:6b:2a:9c:d3:68:74:20:83:3f:83:00:1a:c7:3e:
                    a5:8e:01:d4:6a:a8:22:58:67:cc:17:01:bc:9f:4b:
                    7b:12:2a:4c:58:a6:1d:d2:10:c1:dd:7a:5f:0d:30:
                    7b:23:db:e4:74:69:91:df:a2:f4:dc:0a:55:f3:e0:
                    00:04:46:2c:4d:a3:5b:2c:ea:03:cb:03:81:5a:af:
                    c3:3f:8e:dd:9c:1b:21:7a:bf:de:ee:78:cf:d4:e6:
                    8f:05:85:bc:43:24:8e:90:13:d9:60:ec:2b:3b:d1:
                    25:b8:49:fb:50:37:53:03:c8:8e:37:a4:18:4e:97:
                    e9:45:fe:76:73:07:8f:f4:16:47:5b:41:27:ad:11:
                    e5:62:ed:07:8b:58:c3:88:57:bc:f0:db:48:21:85:
                    f9:ac:91:68:c1:4a:7f:76:21:d8:d3:54:17:b8:3b:
                    e0:a9:79:04:94:96:36:5b:0a:da:a6:84:fc:c1:1d:
                    ba:54:cb:83:da:f1:38:e2:83:e2:fc:89:b5:4c:9a:
                    4a:85:61:be:be:a1:64:d6:0c:72:30:f8:b7:e2:0d:
                    1c:56:19:37:69:8a:6d:e8:4e:42:97:18:b1:35:a2:
                    58:70:48:6b:7b:49:6a:87:03:b5:8d:a7:ef:df:0e:
                    78:ed:03:88:99:56:f7:8f:77:8a:e7:4a:c9:dc:d2:
                    ff:d0:7e:08:cc:47:14:bf:52:b8:52:78:9f:39:36:
                    ae:e4:f1:37:a0:44:06:4b:11:e2:0a:3f:db:94:13:
                    c9:0c:73:7a:a4:e8:b8:ff:ff:53:b3:e5:fc:05:76:
                    34:a9:af:9e:16:6c:3f:35:ce:cc:47:e3:3e:ce:6c:
                    5a:34:14:45:f8:a2:44:f8:50:b7:b1:d1:3f:00:34:
                    15:1a:77:fe:97
                Exponent: 65537 (0x10001)
        X509v3 extensions:
            X509v3 Extended Key Usage: 
                TLS Web Client Authentication
            X509v3 CRL Distribution Points: 

                Full Name:
                  URI:http://www.example.com/example_ca.crl

    Signature Algorithm: sha512WithRSAEncryption
         5c:5f:d8:1d:c0:86:3d:bd:8d:71:16:98:24:1c:d8:20:c4:71:
         b9:bd:97:d3:54:17:69:f9:12:b2:b7:f8:51:5a:99:29:bb:19:
         22:eb:6f:18:2d:24:50:1f:b6:c7:a2:3e:9b:87:cd:a6:43:a3:
         15:3a:43:26:56:c7:b7:42:20:43:85:ff:99:f6:25:75:39:d0:
         4f:8f:f7:b7:41:b3:42:e4:b7:7f:2b:ca:c8:98:22:ba:b9:53:
         01:3b:d5:26:d4:50:0a:cf:9b:f0:bb:12:3f:26:38:c8:79:fa:
         9c:ac:df:05:df:16:f6:fc:52:c6:0e:a1:ea:a5:1e:30:61:ec:
         a7:fc:0d:07:b2:99:a1:fb:f8:b7:17:01:cc:ea:10:24:84:f9:
         0a:1d:e1:52:2e:22:14:72:7e:dc:56:5e:38:28:7d:25:95:a3:
         b6:9d:2d:3e:70:f5:d3:40:d9:65:16:fc:33:3b:73:6e:5b:2f:
         2b:5a:07:d6:29:a1:a4:2b:43:39:44:73:a1:ac:db:bc:ee:dc:
         bf:b8:9e:6b:c3:e8:99:a7:96:c1:ba:a1:39:e7:73:a8:31:d3:
         6d:3a:87:8f:6c:1a:77:d6:41:25:dc:c1:44:7c:3f:90:7d:cd:
         cc:d9:71:21:4d:a8:71:fc:11:67:a0:c6:23:b9:51:2c:a5:b3:
         2f:a9:36:9d:60:f5:9d:49:7b:c1:cb:1b:fe:a0:84:1c:27:e4:
         37:b2:3c:95:76:5e:2b:36:8c:15:fd:48:01:99:2f:d2:16:8f:
         f1:bb:8c:fb:0f:7f:ca:11:3e:b5:24:46:3e:0e:22:7e:64:fd:
         cf:54:77:5c:e5:8d:0d:69:0c:35:51:f5:7d:29:c7:7a:58:68:
         27:0d:4e:ad:45:56:ec:47:27:e5:74:a7:b4:7b:71:37:25:a9:
         67:75:34:0d:cc:01:9c:d2:4d:59:76:08:0f:09:b3:4a:73:99:
         5f:60:8f:7b:b5:59:20:fb:3e:1f:e1:cb:6d:ca:81:a5:22:54:
         a3:98:ce:85:c8:1a:56:3e:c9:72:cb:76:a7:db:58:2c:be:71:
         b6:d5:65:fb:54:e1:a4:66:4d:e4:0f:f4:c1:92:99:37:04:02:
         57:07:03:7f:1b:e1:d9:b1:40:46:7e:bd:2f:ce:85:5c:a6:20:
         2e:fd:48:53:aa:65:4a:c4:1c:cc:ac:c7:b2:7a:5c:8f:8b:08:
         4c:fc:41:e9:f8:92:29:92:62:0c:bf:3c:c1:bd:f5:f8:73:4b:
         d9:29:c8:d2:98:85:52:33:c4:9c:70:39:02:58:4d:f4:4f:f8:
         f3:08:d6:e2:8a:ad:bf:58:72:dc:54:2a:8b:08:e1:c4:d2:72:
         23:6b:cf:9e:2c:52:97:45
-----BEGIN CERTIFICATE-----
MIIIFTCCBf2gAwIBAgIBDzANBgkqhkiG9w0BAQ0FADCBuDELMAkGA1UEBhMCVVMx
ETAPBgNVBAgMCENvbG9yYWRvMRkwFwYDVQQHDBBDb2xvcmFkbyBTcHJpbmdzMR8w
HQYDVQQKDBZMaW5rUnVubmVyIEVuZ2luZWVyaW5nMSMwIQYJKoZIhvcNAQkBFhRh
ZG1pbkBsaW5rcnVubmVyLm9yZzE1MDMGA1UEAwwsTGlua1J1bm5lciBFbmdpbmVl
cmluZyBDZXJ0aWZpY2F0ZSBBdXRob3JpdHkwHhcNMTkwMjA4MTgxMjE1WhcNMjkw
MjA1MTgxMjE1WjCBkTELMAkGA1UEBhMCVVMxETAPBgNVBAgMCENvbG9yYWRvMR8w
HQYDVQQKDBZMaW5rUnVubmVyIEVuZ2luZWVyaW5nMSMwIQYDVQQDDBp1c2VyODE5
MnNoYTUxMkBleGFtcGxlLm9yZzEpMCcGCSqGSIb3DQEJARYadXNlcjgxOTJzaGE1
MTJAZXhhbXBsZS5vcmcwggQiMA0GCSqGSIb3DQEBAQUAA4IEDwAwggQKAoIEAQDo
8HTM8bWiZLDsGwAdIPtsaAZHLSjpzfjVWfxQEYIU0aZ0g+p6ywo1szfp0smKm36g
3MxKTxCNGEZetzLqt4s6bG8UX+c6BWk0b3HMF2EbAUQ4cZ3/XhJN5ocVrsZmhXm3
hUVTToCj4xXNY6mR878BrZKUziqCe2z6iZpmFO8gU9fer8tV0SN9cYfWSjvSWolK
X1GQBoCOO4S+7uN9eT/9Hzr1VA7DqOA497SFPW9gcG/k/rD42P9yTn0c6U+8mjPK
ivg1tx5+gdX1VUiZvOrgnO4WP+nAyOq1ZTpRC0MpYuW3E2shczlcspoUBgzWaU88
UmKA7ZEwQXdT9jGojUdu4LxKgC2DBICg2NOsyy1exXC1Uh63WkHOS/1312hOxpKs
/RPcQ+8ET0igzMH9cwJj4+XYB1uM91tOkQ1LI08oEhNwOljvDMvQjl8VHRkpJRDo
YCjQUPXpNbxQtkNK+f/Dn3OJZev5K2vO5sOwdPpLwdO0rCHIUhbuyEdukvyDmZUA
FCvjmPxSmKw+IVozqBgOOOwQc2sWjg6yZJVz/OBetwdqLbow1jFwz8tNw0bDW2E8
SPjJvIPPB0KtXIsaENvCF+TwPYbUbYn/jGLJViUNgDc55i4uKN5mmbK7orR3kwuZ
x9JcFSzGy8GETOGRO6yHUAglXSvn9BDld+vpv/rxkNIvyjE5K+gVJJVNFJE+DCXn
fMspu1vUqIOD72IH6cL0vJVxWgwM6Zf2/s0a9E5MclTC1fq15ughW7lYBs5g91r+
1it/SRPogTmGBfXVqWEJpQo8aW7Gxl2sLhNIhBtqe/Ga4MjLAPybMqtXWyLqhigg
sK72Bj7xgPpKX5qHUW1wpqnayD9tpG1es/WHyoNkAvpEIdaIpdIlfKsPQCT0E7/3
mXErS7ce2muXVLunqefRojNrKpzTaHQggz+DABrHPqWOAdRqqCJYZ8wXAbyfS3sS
KkxYph3SEMHdel8NMHsj2+R0aZHfovTcClXz4AAERixNo1ss6gPLA4Far8M/jt2c
GyF6v97ueM/U5o8FhbxDJI6QE9lg7Cs70SW4SftQN1MDyI43pBhOl+lF/nZzB4/0
FkdbQSetEeVi7QeLWMOIV7zw20ghhfmskWjBSn92IdjTVBe4O+CpeQSUljZbCtqm
hPzBHbpUy4Pa8Tjig+L8ibVMmkqFYb6+oWTWDHIw+LfiDRxWGTdpim3oTkKXGLE1
olhwSGt7SWqHA7WNp+/fDnjtA4iZVvePd4rnSsnc0v/QfgjMRxS/UrhSeJ85Nq7k
8TegRAZLEeIKP9uUE8kMc3qk6Lj//1Oz5fwFdjSpr54WbD81zsxH4z7ObFo0FEX4
okT4ULex0T8ANBUad/6XAgMBAAGjTzBNMBMGA1UdJQQMMAoGCCsGAQUFBwMCMDYG
A1UdHwQvMC0wK6ApoCeGJWh0dHA6Ly93d3cuZXhhbXBsZS5jb20vZXhhbXBsZV9j
YS5jcmwwDQYJKoZIhvcNAQENBQADggIBAFxf2B3Ahj29jXEWmCQc2CDEcbm9l9NU
F2n5ErK3+FFamSm7GSLrbxgtJFAftseiPpuHzaZDoxU6QyZWx7dCIEOF/5n2JXU5
0E+P97dBs0Lkt38rysiYIrq5UwE71SbUUArPm/C7Ej8mOMh5+pys3wXfFvb8UsYO
oeqlHjBh7Kf8DQeymaH7+LcXAczqECSE+Qod4VIuIhRyftxWXjgofSWVo7adLT5w
9dNA2WUW/DM7c25bLytaB9YpoaQrQzlEc6Gs27zu3L+4nmvD6JmnlsG6oTnnc6gx
0206h49sGnfWQSXcwUR8P5B9zczZcSFNqHH8EWegxiO5USylsy+pNp1g9Z1Je8HL
G/6ghBwn5DeyPJV2Xis2jBX9SAGZL9IWj/G7jPsPf8oRPrUkRj4OIn5k/c9Ud1zl
jQ1pDDVR9X0px3pYaCcNTq1FVuxHJ+V0p7R7cTclqWd1NA3MAZzSTVl2CA8Js0pz
mV9gj3u1WSD7Ph/hy23KgaUiVKOYzoXIGlY+yXLLdqfbWCy+cbbVZftU4aRmTeQP
9MGSmTcEAlcHA38b4dmxQEZ+vS/OhVymIC79SFOqZUrEHMysx7J6XI+LCEz8Qen4
kimSYgy/PMG99fhzS9kpyNKYhVIzxJxwOQJYTfRP+PMI1uKKrb9YctxUKosI4cTS
ciNrz54sUpdF
-----END CERTIFICATE-----
