Certificate:
    Data:
        Version: 3 (0x2)
        Serial Number: 8 (0x8)
        Signature Algorithm: sha256WithRSAEncryption
        Issuer: C=US, ST=Colorado, L=Engineering, O=Minion Lab/emailAddress=admin@minion.lab, CN=Minion Lab FreeRadius CA
        Validity
            Not Before: May  8 15:34:10 2019 GMT
            Not After : May  5 15:34:10 2029 GMT
        Subject: C=US, ST=Colorado, O=Minion Lab, CN=kris.armstrong@8192minion.lab/emailAddress=kris.armstrong@8192minion.lab
        Subject Public Key Info:
            Public Key Algorithm: rsaEncryption
                RSA Public-Key: (8192 bit)
                Modulus:
                    00:a7:11:b4:2f:42:2c:f5:d4:22:f9:96:79:c2:02:
                    f5:f3:39:65:48:05:90:13:af:15:b1:87:3e:f7:4a:
                    00:53:0f:32:10:d0:d1:fa:6c:c3:44:bb:94:0d:a9:
                    f6:a9:04:07:49:98:d0:2b:2c:09:a3:46:e2:7c:2a:
                    b2:1a:91:5b:91:9d:e8:01:02:eb:52:21:73:28:0b:
                    e0:75:72:2b:48:60:93:34:e8:a3:4e:66:f1:83:e4:
                    50:af:1a:7b:20:59:e1:cd:61:5c:60:1d:8e:8b:b7:
                    eb:ea:f3:02:b9:0d:4d:f1:c6:6f:a0:48:ab:62:bd:
                    8d:4c:41:57:13:3d:de:f1:c9:17:8c:b7:27:f2:8c:
                    46:99:d4:9d:71:5d:68:d0:c1:89:0e:fc:e5:44:4d:
                    5d:cf:06:c2:12:73:0f:f9:c7:c4:aa:be:78:a3:aa:
                    19:19:9d:61:d7:e5:b0:bb:19:ae:39:1b:7a:6c:29:
                    68:58:d8:d3:b9:10:19:c7:e8:1e:43:3f:2c:a0:29:
                    c1:90:16:24:fe:bb:ef:38:d5:9e:8b:ce:0f:5d:a3:
                    f4:90:a2:57:b6:6f:de:a8:d5:a3:69:18:15:d1:06:
                    9a:1f:08:9a:0e:a6:01:76:da:6f:1b:2f:d2:81:ab:
                    62:e9:c3:3b:eb:a2:17:b9:ae:69:de:64:3f:b2:97:
                    d1:f1:7a:37:20:a2:91:b5:f1:97:40:a5:83:fd:b9:
                    cd:d4:72:11:b1:99:f5:41:c1:1e:c8:69:3b:81:aa:
                    4c:ce:29:bf:4b:ff:35:e6:e4:e4:a4:40:56:33:44:
                    d5:8d:d6:2b:0f:15:bd:c6:fd:92:94:74:b1:c7:01:
                    a6:c5:60:e3:18:4d:8f:dd:89:2c:e9:16:7a:7e:dc:
                    b6:ec:1e:9e:90:3c:45:f5:13:da:c9:63:3f:a2:a9:
                    9f:5c:ae:4f:f9:9e:88:1f:dd:3e:7f:34:8f:9c:b5:
                    f5:11:32:bc:0a:a4:b9:2a:b2:8a:86:5b:33:46:58:
                    f4:d1:ab:58:43:61:23:29:f1:13:55:0c:e1:e2:ed:
                    c2:4b:5c:f6:1d:48:38:7b:93:bc:3d:a3:a0:57:5e:
                    fd:2d:40:89:42:2f:fa:38:65:0e:6c:ac:77:b9:76:
                    d8:8e:a1:51:1f:62:57:18:9f:6b:01:f5:60:df:49:
                    51:57:ec:97:72:5c:80:76:d6:a6:7e:b8:da:d6:94:
                    eb:07:ef:15:f8:f8:e7:ae:c3:24:f5:1f:92:94:6c:
                    7e:2e:83:0d:6c:c6:53:d6:d4:c5:b2:89:32:b2:dc:
                    8f:4a:9c:7e:72:0f:f0:c5:69:cf:e3:97:a6:d5:8a:
                    72:58:9e:61:fc:e0:ef:42:0d:71:93:24:2e:af:0e:
                    24:be:57:93:c9:64:af:aa:93:5a:9e:92:97:4e:a5:
                    3f:bd:cc:fc:62:a0:80:40:60:1b:03:8f:bd:f0:21:
                    d3:24:ce:d9:3a:41:98:91:3e:31:ee:24:a9:87:bd:
                    eb:8f:51:90:8c:35:6e:bc:a7:20:3b:d1:1d:3f:af:
                    4e:7e:1e:f1:c3:a4:e9:73:6d:5a:41:e3:04:ca:75:
                    9e:e5:f5:6a:71:45:14:75:11:45:cf:81:42:5f:39:
                    a6:99:67:6b:08:88:50:2d:9a:aa:ba:65:81:d1:87:
                    a3:e5:77:5b:aa:cd:6e:6d:bf:63:c1:a5:20:f6:9f:
                    3e:d3:12:b8:d0:e8:a5:2b:2e:7b:c9:77:40:d5:d4:
                    5d:3d:be:6b:c3:18:59:c7:88:cf:c9:45:7a:9b:d6:
                    8a:81:a9:5d:fa:bb:ed:0f:28:26:4d:de:12:f2:4c:
                    46:90:0e:30:c4:9e:89:ad:89:ad:b0:36:4e:28:4b:
                    23:66:8e:82:58:35:07:d4:7b:30:7a:a1:f3:10:68:
                    6f:13:9f:4f:9f:64:53:b2:d4:b7:07:aa:c8:52:a3:
                    71:89:d4:4d:ad:4a:fc:ae:6d:83:90:06:f6:82:e8:
                    3a:d9:29:f0:96:48:9b:56:80:0f:1c:d9:18:59:44:
                    bc:15:c8:75:2f:8b:80:db:9c:e6:90:8e:30:72:b6:
                    d2:a3:27:de:dc:80:6e:9e:95:e9:c4:7e:3e:b4:61:
                    37:00:83:64:53:ee:04:59:19:a9:39:82:0c:00:1d:
                    ad:1b:ea:96:8a:4f:c8:1a:6d:66:c7:69:3d:87:81:
                    f1:dc:23:c7:c1:63:cf:8a:de:00:02:c0:d7:42:aa:
                    f6:e9:22:c4:b8:f8:eb:92:dc:cb:5f:4c:e2:96:f5:
                    eb:09:ce:36:8a:3c:fc:a6:b6:f2:94:c0:f3:29:ec:
                    d3:78:c3:04:49:6a:0e:29:3c:68:67:be:4b:b9:45:
                    7f:f1:98:30:33:c7:6c:d4:23:2f:b4:a2:bf:8e:0c:
                    3a:a3:23:b0:79:72:fe:6a:81:18:aa:fe:71:ab:a7:
                    7f:6d:9f:46:d8:1a:13:cb:60:f2:54:1c:80:4c:6d:
                    a6:d0:09:2c:0d:4d:90:51:ef:27:60:0e:75:62:33:
                    e9:81:d0:e2:97:ab:61:fc:d1:b8:b6:e9:fc:a8:2c:
                    11:ab:51:0e:ba:87:a3:7c:c3:fb:bf:f8:22:f5:27:
                    ed:2f:30:28:af:2e:f9:e3:a4:c2:33:24:9e:53:48:
                    cf:bc:4c:4a:6d:b7:c6:4b:b4:35:0d:3b:69:91:22:
                    03:50:bd:18:2a:77:9b:8a:2b:59:5d:c7:14:a6:e9:
                    29:ab:50:af:60:4b:06:b9:fc:08:9f:7d:31:da:14:
                    9b:e7:72:9c:95
                Exponent: 65537 (0x10001)
        X509v3 extensions:
            X509v3 Extended Key Usage: 
                TLS Web Client Authentication
            X509v3 CRL Distribution Points: 

                Full Name:
                  URI:http://www.example.com/example_ca.crl

    Signature Algorithm: sha256WithRSAEncryption
         46:24:25:5e:f2:bf:4a:38:e2:b1:e2:90:7f:f8:4b:e0:5c:3d:
         2c:e8:b0:60:6a:87:78:46:43:70:a9:82:08:87:95:5a:0a:a5:
         ef:a6:8b:8c:8a:12:4c:30:e5:66:06:0c:46:0c:3b:3c:fb:d1:
         8e:10:d2:48:84:32:e1:90:72:9f:a5:62:89:20:aa:11:73:37:
         9a:70:c7:3f:a9:cd:a6:22:eb:b5:c1:a1:91:24:97:12:31:3e:
         87:89:d1:e4:0c:41:ad:46:b1:a2:68:00:5e:b9:23:fa:d0:59:
         9c:0b:f2:7d:75:08:24:96:52:ac:2a:2e:d3:fa:13:41:f3:d8:
         4a:8e:07:d2:42:bf:7a:13:3f:ee:a0:72:26:5b:83:91:24:e4:
         3a:56:66:15:1a:7e:29:8c:8a:e6:43:07:fb:0d:57:a6:43:78:
         7a:51:81:b3:61:24:89:48:c6:1f:76:52:d2:bd:c9:37:9a:0b:
         0c:cb:32:6a:52:00:ce:d6:f4:2a:0d:e7:0b:4d:0c:6a:43:1b:
         7d:fb:3b:fd:36:ef:ab:07:4e:ac:19:3c:b8:4b:ac:ff:8f:02:
         8e:b6:ae:5d:f7:41:94:e7:8e:c7:fe:26:b2:e2:75:c4:0c:9f:
         ef:a3:3f:62:88:98:b7:3d:76:ab:fd:0c:84:16:aa:24:3c:00:
         78:df:6f:a5:29:f8:09:71:40:c3:f8:ee:8e:8f:76:0d:44:10:
         dd:72:70:de:e4:71:cb:0a:9c:d9:49:37:80:4a:0e:26:97:d8:
         a0:ba:77:65:b7:50:83:06:8b:d8:df:43:d3:a3:67:fc:4d:0c:
         64:53:fb:db:e6:36:f3:75:1e:db:49:b1:f9:ad:1b:3c:5a:de:
         c2:3b:21:06:05:c3:70:b2:2f:50:a9:12:7a:0b:e8:67:aa:29:
         8e:14:45:df:1b:64:a0:f0:b0:d6:3c:62:67:18:84:7a:5e:92:
         f7:13:90:10:58:be:c4:c5:d1:55:9d:22:e2:99:99:41:d5:75:
         f0:e0:c6:98:f7:d6:72:3a:53:c9:7e:06:36:3e:21:b8:86:ce:
         63:89:f1:8b:1b:0e:77:a9:6e:5e:22:46:c8:be:2b:0d:9f:a2:
         7e:c3:05:9f:c0:05:07:3f:4c:38:e1:34:7b:fd:e3:d3:ff:fd:
         33:be:41:5a:19:00:ff:12:5d:95:a5:15:a4:62:bd:ab:ad:af:
         d0:8c:06:dc:3a:77:74:53:6f:cb:4f:1c:3d:9b:71:9c:01:6b:
         ec:8d:bf:b1:4f:b0:68:55:5e:91:30:9f:e1:47:86:64:6c:aa:
         3b:cb:53:27:fd:60:3e:b6:02:12:ea:52:1d:09:07:f1:b6:ae:
         b6:06:38:4f:52:bf:e2:e5
-----BEGIN CERTIFICATE-----
MIIH5jCCBc6gAwIBAgIBCDANBgkqhkiG9w0BAQsFADCBjzELMAkGA1UEBhMCVVMx
ETAPBgNVBAgMCENvbG9yYWRvMRQwEgYDVQQHDAtFbmdpbmVlcmluZzETMBEGA1UE
CgwKTWluaW9uIExhYjEfMB0GCSqGSIb3DQEJARYQYWRtaW5AbWluaW9uLmxhYjEh
MB8GA1UEAwwYTWluaW9uIExhYiBGcmVlUmFkaXVzIENBMB4XDTE5MDUwODE1MzQx
MFoXDTI5MDUwNTE1MzQxMFowgYsxCzAJBgNVBAYTAlVTMREwDwYDVQQIDAhDb2xv
cmFkbzETMBEGA1UECgwKTWluaW9uIExhYjEmMCQGA1UEAwwda3Jpcy5hcm1zdHJv
bmdAODE5Mm1pbmlvbi5sYWIxLDAqBgkqhkiG9w0BCQEWHWtyaXMuYXJtc3Ryb25n
QDgxOTJtaW5pb24ubGFiMIIEIjANBgkqhkiG9w0BAQEFAAOCBA8AMIIECgKCBAEA
pxG0L0Is9dQi+ZZ5wgL18zllSAWQE68VsYc+90oAUw8yENDR+mzDRLuUDan2qQQH
SZjQKywJo0bifCqyGpFbkZ3oAQLrUiFzKAvgdXIrSGCTNOijTmbxg+RQrxp7IFnh
zWFcYB2Oi7fr6vMCuQ1N8cZvoEirYr2NTEFXEz3e8ckXjLcn8oxGmdSdcV1o0MGJ
DvzlRE1dzwbCEnMP+cfEqr54o6oZGZ1h1+WwuxmuORt6bCloWNjTuRAZx+geQz8s
oCnBkBYk/rvvONWei84PXaP0kKJXtm/eqNWjaRgV0QaaHwiaDqYBdtpvGy/Sgati
6cM766IXua5p3mQ/spfR8Xo3IKKRtfGXQKWD/bnN1HIRsZn1QcEeyGk7gapMzim/
S/815uTkpEBWM0TVjdYrDxW9xv2SlHSxxwGmxWDjGE2P3Yks6RZ6fty27B6ekDxF
9RPayWM/oqmfXK5P+Z6IH90+fzSPnLX1ETK8CqS5KrKKhlszRlj00atYQ2EjKfET
VQzh4u3CS1z2HUg4e5O8PaOgV179LUCJQi/6OGUObKx3uXbYjqFRH2JXGJ9rAfVg
30lRV+yXclyAdtamfrja1pTrB+8V+PjnrsMk9R+SlGx+LoMNbMZT1tTFsokystyP
Spx+cg/wxWnP45em1YpyWJ5h/ODvQg1xkyQurw4kvleTyWSvqpNanpKXTqU/vcz8
YqCAQGAbA4+98CHTJM7ZOkGYkT4x7iSph73rj1GQjDVuvKcgO9EdP69Ofh7xw6Tp
c21aQeMEynWe5fVqcUUUdRFFz4FCXzmmmWdrCIhQLZqqumWB0Yej5Xdbqs1ubb9j
waUg9p8+0xK40OilKy57yXdA1dRdPb5rwxhZx4jPyUV6m9aKgald+rvtDygmTd4S
8kxGkA4wxJ6JrYmtsDZOKEsjZo6CWDUH1HsweqHzEGhvE59Pn2RTstS3B6rIUqNx
idRNrUr8rm2DkAb2gug62SnwlkibVoAPHNkYWUS8Fch1L4uA25zmkI4wcrbSoyfe
3IBunpXpxH4+tGE3AINkU+4EWRmpOYIMAB2tG+qWik/IGm1mx2k9h4Hx3CPHwWPP
it4AAsDXQqr26SLEuPjrktzLX0zilvXrCc42ijz8prbylMDzKezTeMMESWoOKTxo
Z75LuUV/8ZgwM8ds1CMvtKK/jgw6oyOweXL+aoEYqv5xq6d/bZ9G2BoTy2DyVByA
TG2m0AksDU2QUe8nYA51YjPpgdDil6th/NG4tun8qCwRq1EOuoejfMP7v/gi9Sft
LzAory7546TCMySeU0jPvExKbbfGS7Q1DTtpkSIDUL0YKnebiitZXccUpukpq1Cv
YEsGufwIn30x2hSb53KclQIDAQABo08wTTATBgNVHSUEDDAKBggrBgEFBQcDAjA2
BgNVHR8ELzAtMCugKaAnhiVodHRwOi8vd3d3LmV4YW1wbGUuY29tL2V4YW1wbGVf
Y2EuY3JsMA0GCSqGSIb3DQEBCwUAA4ICAQBGJCVe8r9KOOKx4pB/+EvgXD0s6LBg
aod4RkNwqYIIh5VaCqXvpouMihJMMOVmBgxGDDs8+9GOENJIhDLhkHKfpWKJIKoR
czeacMc/qc2mIuu1waGRJJcSMT6HidHkDEGtRrGiaABeuSP60FmcC/J9dQgkllKs
Ki7T+hNB89hKjgfSQr96Ez/uoHImW4ORJOQ6VmYVGn4pjIrmQwf7DVemQ3h6UYGz
YSSJSMYfdlLSvck3mgsMyzJqUgDO1vQqDecLTQxqQxt9+zv9Nu+rB06sGTy4S6z/
jwKOtq5d90GU547H/iay4nXEDJ/voz9iiJi3PXar/QyEFqokPAB432+lKfgJcUDD
+O6Oj3YNRBDdcnDe5HHLCpzZSTeASg4ml9igundlt1CDBovY30PTo2f8TQxkU/vb
5jbzdR7bSbH5rRs8Wt7COyEGBcNwsi9QqRJ6C+hnqimOFEXfG2Sg8LDWPGJnGIR6
XpL3E5AQWL7ExdFVnSLimZlB1XXw4MaY99ZyOlPJfgY2PiG4hs5jifGLGw53qW5e
IkbIvisNn6J+wwWfwAUHP0w44TR7/ePT//0zvkFaGQD/El2VpRWkYr2rra/QjAbc
Ond0U2/LTxw9m3GcAWvsjb+xT7BoVV6RMJ/hR4ZkbKo7y1Mn/WA+tgIS6lIdCQfx
tq62BjhPUr/i5Q==
-----END CERTIFICATE-----
