Certificate:
    Data:
        Version: 3 (0x2)
        Serial Number: 1 (0x1)
        Signature Algorithm: sha256WithRSAEncryption
        Issuer: C=US, ST=Colorado, L=Colorado Springs, O=LinkRunner Engineering/emailAddress=admin@linkrunner.org, CN=LinkRunner Engineering Certificate Authority
        Validity
            Not Before: Feb  8 16:35:23 2019 GMT
            Not After : Feb  5 16:35:23 2029 GMT
        Subject: C=US, ST=Colorado, O=LinkRunner Engineering, CN=LinkRunner Engineering Server Certificate/emailAddress=admin@linkrunner.org
        Subject Public Key Info:
            Public Key Algorithm: rsaEncryption
                RSA Public-Key: (4096 bit)
                Modulus:
                    00:e6:8c:2d:59:28:49:72:27:53:7c:4d:cd:88:20:
                    44:f6:18:25:bd:73:a7:49:8e:a9:9a:16:56:66:f8:
                    2b:e3:67:fa:f5:6a:98:89:e1:25:85:9f:5b:60:11:
                    ff:bf:ff:41:d3:6d:d4:9c:d8:55:a4:b8:b6:61:c6:
                    bf:7d:55:fc:b6:d9:83:7a:a3:be:8a:e8:3e:3e:2c:
                    9b:5d:13:f5:83:67:9c:be:12:ec:ad:f8:78:bf:88:
                    1a:9d:18:23:16:2c:b9:21:78:73:bc:83:67:b6:6a:
                    27:a2:2e:b2:1a:55:e9:5f:b0:65:99:12:c0:6b:04:
                    0c:7a:de:ad:2d:27:2f:b4:00:8d:dc:d8:fc:d7:64:
                    7a:b8:10:c3:e9:87:17:13:87:8d:16:33:33:7a:c6:
                    7e:af:d0:4c:ba:57:4b:b1:0a:28:b4:5d:aa:cd:e1:
                    33:e3:37:4d:05:53:99:36:42:e1:eb:0a:88:43:b1:
                    8a:9c:49:e2:c8:1e:82:dd:19:c0:9d:82:ad:91:a6:
                    4a:c5:20:e1:27:b8:2a:e8:8d:c5:9b:a0:47:e6:48:
                    0b:2a:ce:db:88:6e:7e:df:ae:e7:08:ef:1e:81:94:
                    9e:5a:86:0d:ad:91:0c:47:5b:53:51:8f:48:8a:63:
                    ec:bf:1d:96:e7:5b:08:80:fd:80:14:91:c0:2b:a2:
                    47:f0:1d:c6:68:b7:2c:f4:dd:0d:dd:6a:3e:ca:e3:
                    ee:4f:e5:3d:a8:56:f5:44:4f:07:d9:52:a3:7a:37:
                    90:6f:3a:95:f3:1e:a9:3b:59:87:c7:8a:bc:cc:2c:
                    4f:b1:02:58:fd:61:b0:3d:6a:d1:9d:dd:49:2b:a9:
                    f8:ce:fe:89:61:82:d6:72:7e:73:f5:6f:11:86:f2:
                    9c:3a:c7:bd:90:f0:31:78:37:bb:74:03:ea:8b:ed:
                    b0:53:1a:28:43:a7:39:99:00:29:b1:42:ff:41:83:
                    e6:e0:09:c4:c8:c1:97:33:c1:b7:fb:1c:cd:1b:92:
                    c3:18:12:bb:5f:57:d2:6b:2e:bc:f8:42:6b:1a:a4:
                    bf:fe:80:df:e4:6d:7e:cc:54:8c:2b:db:52:9c:9c:
                    53:92:eb:fc:57:73:87:1c:fe:fb:c5:af:c7:e6:9d:
                    bf:fe:a1:2c:ed:3f:f2:5d:0a:7b:ca:e4:c1:bf:c7:
                    58:88:a7:dd:81:a2:ed:b2:76:4d:92:6e:0b:cf:17:
                    6e:3f:bf:4b:c4:1d:31:cb:0b:a1:7c:2b:66:5b:90:
                    35:35:5b:3a:2d:3a:c4:0e:8e:51:8a:0d:88:89:13:
                    a1:e9:2a:75:4b:0c:cd:a7:cf:cc:f2:86:7e:e9:7f:
                    4f:33:59:89:eb:bf:07:f6:aa:ab:34:c0:26:54:7a:
                    52:42:61
                Exponent: 65537 (0x10001)
        X509v3 extensions:
            X509v3 Extended Key Usage: 
                TLS Web Server Authentication
            X509v3 CRL Distribution Points: 

                Full Name:
                  URI:http://www.example.com/example_ca.crl

    Signature Algorithm: sha256WithRSAEncryption
         aa:46:4b:93:75:79:eb:fc:08:e6:8b:d7:3c:a8:bd:85:fb:cc:
         af:3a:f7:0a:37:bf:68:9c:77:eb:3e:72:0e:d3:13:f7:d8:63:
         24:28:5b:ea:65:1a:ea:35:63:38:d9:23:0d:e0:2e:42:f2:f7:
         63:19:ed:84:70:02:89:1a:85:1f:c2:97:3f:48:54:0a:d8:b4:
         05:14:d5:cd:28:a6:31:a5:d6:cf:00:79:61:30:a6:a3:c5:7b:
         9c:9e:d4:d1:eb:c9:1c:c4:87:f5:1b:1c:bf:a2:fa:a8:92:ba:
         27:4d:f0:57:2d:69:e8:09:7c:81:23:d2:87:98:1b:e0:9b:4d:
         f7:73:0d:da:94:37:a1:d8:88:eb:23:60:c1:04:7a:19:1f:74:
         f5:ea:e8:63:3e:1c:eb:6f:fa:3b:fa:b9:1d:6b:d2:73:d2:f0:
         39:56:53:bd:4a:67:41:8c:84:5c:19:d2:b8:b6:3b:f9:bf:1d:
         eb:8a:27:8a:92:70:25:56:0e:8e:a6:dc:c8:68:97:5f:31:02:
         f7:92:c6:ef:52:56:d5:1d:d9:32:69:bc:70:c3:eb:81:bf:87:
         d9:5a:a0:b0:85:3c:e7:92:1d:55:22:29:95:0b:37:f7:b4:7c:
         02:f1:83:47:11:a0:12:79:c3:7b:45:1f:28:9b:d6:1f:2b:48:
         5e:1d:f3:ad:ad:5c:97:71:e9:50:0e:c9:86:e8:67:6f:22:0f:
         21:bc:44:84:95:c3:ac:77:ff:1a:73:16:6b:17:45:6b:e1:5a:
         a1:6e:54:c3:1b:e8:96:0f:9b:9a:11:10:07:d7:83:a5:da:44:
         1e:bc:3c:3b:8d:c1:0b:f1:c7:ad:4f:96:aa:39:27:0a:d5:f1:
         c2:3f:1b:f2:c2:57:f7:82:a3:3b:9d:0b:83:91:38:0e:da:7a:
         b6:0f:4b:6e:8b:e9:2f:bd:73:96:7a:d0:50:34:5d:4f:9a:a9:
         20:c8:a3:16:69:2f:d5:2e:38:6c:00:f9:76:23:1b:b0:e3:9d:
         0b:16:f1:08:22:46:88:39:dc:31:89:e4:f6:d2:41:4a:11:bf:
         4a:95:35:7c:c1:6a:ed:1c:26:8e:54:a4:92:fc:6c:37:0b:c4:
         64:6c:2e:67:e2:f7:5b:cb:5e:c7:fb:c9:46:ab:92:ec:ce:35:
         2a:eb:0b:dc:cb:1f:c2:44:fb:82:4e:61:f9:df:2f:bd:7e:03:
         c1:32:bf:bc:94:38:29:aa:13:5e:a3:2a:ce:3c:4e:2c:cb:9b:
         6d:6f:c3:d9:0b:bd:7f:ce:20:69:38:47:2f:b4:33:80:78:ae:
         fc:47:65:0a:28:2e:c4:8c:78:42:c2:4f:7a:1e:3c:15:d2:a5:
         6a:71:db:99:47:b6:70:26
-----BEGIN CERTIFICATE-----
MIIGHjCCBAagAwIBAgIBATANBgkqhkiG9w0BAQsFADCBuDELMAkGA1UEBhMCVVMx
ETAPBgNVBAgMCENvbG9yYWRvMRkwFwYDVQQHDBBDb2xvcmFkbyBTcHJpbmdzMR8w
HQYDVQQKDBZMaW5rUnVubmVyIEVuZ2luZWVyaW5nMSMwIQYJKoZIhvcNAQkBFhRh
ZG1pbkBsaW5rcnVubmVyLm9yZzE1MDMGA1UEAwwsTGlua1J1bm5lciBFbmdpbmVl
cmluZyBDZXJ0aWZpY2F0ZSBBdXRob3JpdHkwHhcNMTkwMjA4MTYzNTIzWhcNMjkw
MjA1MTYzNTIzWjCBmjELMAkGA1UEBhMCVVMxETAPBgNVBAgMCENvbG9yYWRvMR8w
HQYDVQQKDBZMaW5rUnVubmVyIEVuZ2luZWVyaW5nMTIwMAYDVQQDDClMaW5rUnVu
bmVyIEVuZ2luZWVyaW5nIFNlcnZlciBDZXJ0aWZpY2F0ZTEjMCEGCSqGSIb3DQEJ
ARYUYWRtaW5AbGlua3J1bm5lci5vcmcwggIiMA0GCSqGSIb3DQEBAQUAA4ICDwAw
ggIKAoICAQDmjC1ZKElyJ1N8Tc2IIET2GCW9c6dJjqmaFlZm+CvjZ/r1apiJ4SWF
n1tgEf+//0HTbdSc2FWkuLZhxr99Vfy22YN6o76K6D4+LJtdE/WDZ5y+Euyt+Hi/
iBqdGCMWLLkheHO8g2e2aieiLrIaVelfsGWZEsBrBAx63q0tJy+0AI3c2PzXZHq4
EMPphxcTh40WMzN6xn6v0Ey6V0uxCii0XarN4TPjN00FU5k2QuHrCohDsYqcSeLI
HoLdGcCdgq2RpkrFIOEnuCrojcWboEfmSAsqztuIbn7frucI7x6BlJ5ahg2tkQxH
W1NRj0iKY+y/HZbnWwiA/YAUkcArokfwHcZotyz03Q3daj7K4+5P5T2oVvVETwfZ
UqN6N5BvOpXzHqk7WYfHirzMLE+xAlj9YbA9atGd3UkrqfjO/olhgtZyfnP1bxGG
8pw6x72Q8DF4N7t0A+qL7bBTGihDpzmZACmxQv9Bg+bgCcTIwZczwbf7HM0bksMY
ErtfV9JrLrz4QmsapL/+gN/kbX7MVIwr21KcnFOS6/xXc4cc/vvFr8fmnb/+oSzt
P/JdCnvK5MG/x1iIp92Bou2ydk2SbgvPF24/v0vEHTHLC6F8K2ZbkDU1WzotOsQO
jlGKDYiJE6HpKnVLDM2nz8zyhn7pf08zWYnrvwf2qqs0wCZUelJCYQIDAQABo08w
TTATBgNVHSUEDDAKBggrBgEFBQcDATA2BgNVHR8ELzAtMCugKaAnhiVodHRwOi8v
d3d3LmV4YW1wbGUuY29tL2V4YW1wbGVfY2EuY3JsMA0GCSqGSIb3DQEBCwUAA4IC
AQCqRkuTdXnr/Ajmi9c8qL2F+8yvOvcKN79onHfrPnIO0xP32GMkKFvqZRrqNWM4
2SMN4C5C8vdjGe2EcAKJGoUfwpc/SFQK2LQFFNXNKKYxpdbPAHlhMKajxXucntTR
68kcxIf1Gxy/ovqokronTfBXLWnoCXyBI9KHmBvgm033cw3alDeh2IjrI2DBBHoZ
H3T16uhjPhzrb/o7+rkda9Jz0vA5VlO9SmdBjIRcGdK4tjv5vx3riieKknAlVg6O
ptzIaJdfMQL3ksbvUlbVHdkyabxww+uBv4fZWqCwhTznkh1VIimVCzf3tHwC8YNH
EaASecN7RR8om9YfK0heHfOtrVyXcelQDsmG6GdvIg8hvESElcOsd/8acxZrF0Vr
4VqhblTDG+iWD5uaERAH14Ol2kQevDw7jcEL8cetT5aqOScK1fHCPxvywlf3gqM7
nQuDkTgO2nq2D0tui+kvvXOWetBQNF1PmqkgyKMWaS/VLjhsAPl2Ixuw450LFvEI
IkaIOdwxieT20kFKEb9KlTV8wWrtHCaOVKSS/Gw3C8RkbC5n4vdby17H+8lGq5Ls
zjUq6wvcyx/CRPuCTmH53y+9fgPBMr+8lDgpqhNeoyrOPE4sy5ttb8PZC71/ziBp
OEcvtDOAeK78R2UKKC7EjHhCwk96HjwV0qVqcduZR7ZwJg==
-----END CERTIFICATE-----
